
bin/Debug/arduino328-test-sig.elf:     file format elf32-avr

Sections:
Idx Name          Size      VMA       LMA       File off  Algn
  0 .data         00000002  00800100  00002648  000026dc  2**0
                  CONTENTS, ALLOC, LOAD, DATA
  1 .text         00002648  00000000  00000000  00000094  2**1
                  CONTENTS, ALLOC, LOAD, READONLY, CODE
  2 .bss          000003d6  00800102  00800102  000026de  2**0
                  ALLOC
  3 .stab         0000726c  00000000  00000000  000026e0  2**2
                  CONTENTS, READONLY, DEBUGGING
  4 .stabstr      000036f3  00000000  00000000  0000994c  2**0
                  CONTENTS, READONLY, DEBUGGING

Disassembly of section .text:

00000000 <__vectors>:
       0:	0c 94 46 00 	jmp	0x8c	; 0x8c <__ctors_end>
       4:	0c 94 63 00 	jmp	0xc6	; 0xc6 <__bad_interrupt>
       8:	0c 94 bf 01 	jmp	0x37e	; 0x37e <__vector_2>
       c:	0c 94 63 00 	jmp	0xc6	; 0xc6 <__bad_interrupt>
      10:	0c 94 63 00 	jmp	0xc6	; 0xc6 <__bad_interrupt>
      14:	0c 94 63 00 	jmp	0xc6	; 0xc6 <__bad_interrupt>
      18:	0c 94 63 00 	jmp	0xc6	; 0xc6 <__bad_interrupt>
      1c:	0c 94 2a 01 	jmp	0x254	; 0x254 <__vector_7>
      20:	0c 94 63 00 	jmp	0xc6	; 0xc6 <__bad_interrupt>
      24:	0c 94 63 00 	jmp	0xc6	; 0xc6 <__bad_interrupt>
      28:	0c 94 63 00 	jmp	0xc6	; 0xc6 <__bad_interrupt>
      2c:	0c 94 63 00 	jmp	0xc6	; 0xc6 <__bad_interrupt>
      30:	0c 94 63 00 	jmp	0xc6	; 0xc6 <__bad_interrupt>
      34:	0c 94 63 00 	jmp	0xc6	; 0xc6 <__bad_interrupt>
      38:	0c 94 63 00 	jmp	0xc6	; 0xc6 <__bad_interrupt>
      3c:	0c 94 63 00 	jmp	0xc6	; 0xc6 <__bad_interrupt>
      40:	0c 94 63 00 	jmp	0xc6	; 0xc6 <__bad_interrupt>
      44:	0c 94 63 00 	jmp	0xc6	; 0xc6 <__bad_interrupt>
      48:	0c 94 63 00 	jmp	0xc6	; 0xc6 <__bad_interrupt>
      4c:	0c 94 63 00 	jmp	0xc6	; 0xc6 <__bad_interrupt>
      50:	0c 94 63 00 	jmp	0xc6	; 0xc6 <__bad_interrupt>
      54:	0c 94 63 00 	jmp	0xc6	; 0xc6 <__bad_interrupt>
      58:	0c 94 63 00 	jmp	0xc6	; 0xc6 <__bad_interrupt>
      5c:	0c 94 63 00 	jmp	0xc6	; 0xc6 <__bad_interrupt>
      60:	0c 94 63 00 	jmp	0xc6	; 0xc6 <__bad_interrupt>
      64:	0c 94 63 00 	jmp	0xc6	; 0xc6 <__bad_interrupt>

00000068 <syscall_routine>:
      68:	54 02 9d 02 b7 02 d1 02 eb 02 04 03 67 03 78 03     T...........g.x.
      78:	88 03 b5 03 d7 03 f9 03 10 04 2a 04 3a 04 50 04     ..........*.:.P.
      88:	6a 04 84 04                                         j...

0000008c <__ctors_end>:
      8c:	11 24       	eor	r1, r1
      8e:	1f be       	out	0x3f, r1	; 63
      90:	cf ef       	ldi	r28, 0xFF	; 255
      92:	d8 e0       	ldi	r29, 0x08	; 8
      94:	de bf       	out	0x3e, r29	; 62
      96:	cd bf       	out	0x3d, r28	; 61

00000098 <__do_copy_data>:
      98:	11 e0       	ldi	r17, 0x01	; 1
      9a:	a0 e0       	ldi	r26, 0x00	; 0
      9c:	b1 e0       	ldi	r27, 0x01	; 1
      9e:	e8 e4       	ldi	r30, 0x48	; 72
      a0:	f6 e2       	ldi	r31, 0x26	; 38
      a2:	02 c0       	rjmp	.+4      	; 0xa8 <.do_copy_data_start>

000000a4 <.do_copy_data_loop>:
      a4:	05 90       	lpm	r0, Z+
      a6:	0d 92       	st	X+, r0

000000a8 <.do_copy_data_start>:
      a8:	a2 30       	cpi	r26, 0x02	; 2
      aa:	b1 07       	cpc	r27, r17
      ac:	d9 f7       	brne	.-10     	; 0xa4 <.do_copy_data_loop>

000000ae <__do_clear_bss>:
      ae:	14 e0       	ldi	r17, 0x04	; 4
      b0:	a2 e0       	ldi	r26, 0x02	; 2
      b2:	b1 e0       	ldi	r27, 0x01	; 1
      b4:	01 c0       	rjmp	.+2      	; 0xb8 <.do_clear_bss_start>

000000b6 <.do_clear_bss_loop>:
      b6:	1d 92       	st	X+, r1

000000b8 <.do_clear_bss_start>:
      b8:	a8 3d       	cpi	r26, 0xD8	; 216
      ba:	b1 07       	cpc	r27, r17
      bc:	e1 f7       	brne	.-8      	; 0xb6 <.do_clear_bss_loop>
      be:	0e 94 29 12 	call	0x2452	; 0x2452 <main>
      c2:	0c 94 22 13 	jmp	0x2644	; 0x2644 <_exit>

000000c6 <__bad_interrupt>:
      c6:	0c 94 00 00 	jmp	0	; 0x0 <__vectors>

000000ca <osbme_store_context>:
      ca:	2f 92       	push	r2
      cc:	2f b6       	in	r2, 0x3f	; 63
      ce:	2f 92       	push	r2
      d0:	3f 92       	push	r3
      d2:	4f 92       	push	r4
      d4:	5f 92       	push	r5
      d6:	6f 92       	push	r6
      d8:	7f 92       	push	r7
      da:	8f 92       	push	r8
      dc:	9f 92       	push	r9
      de:	af 92       	push	r10
      e0:	bf 92       	push	r11
      e2:	cf 92       	push	r12
      e4:	df 92       	push	r13
      e6:	ef 92       	push	r14
      e8:	ff 92       	push	r15
      ea:	0f 93       	push	r16
      ec:	1f 93       	push	r17
      ee:	2f 93       	push	r18
      f0:	3f 93       	push	r19
      f2:	4f 93       	push	r20
      f4:	5f 93       	push	r21
      f6:	6f 93       	push	r22
      f8:	7f 93       	push	r23
      fa:	8f 93       	push	r24
      fc:	9f 93       	push	r25
      fe:	af 93       	push	r26
     100:	bf 93       	push	r27
     102:	cf 93       	push	r28
     104:	df 93       	push	r29
     106:	ef 93       	push	r30
     108:	ff 93       	push	r31
     10a:	ed b7       	in	r30, 0x3d	; 61
     10c:	fe b7       	in	r31, 0x3e	; 62
     10e:	21 a1       	ldd	r18, Z+33	; 0x21
     110:	30 a1       	ldd	r19, Z+32	; 0x20
     112:	01 a2       	std	Z+33, r0	; 0x21
     114:	10 a2       	std	Z+32, r1	; 0x20
     116:	11 24       	eor	r1, r1
     118:	8d b7       	in	r24, 0x3d	; 61
     11a:	9e b7       	in	r25, 0x3e	; 62
     11c:	2f 93       	push	r18
     11e:	3f 93       	push	r19
     120:	08 95       	ret

00000122 <osbme_load_context>:
     122:	3f 91       	pop	r19
     124:	2f 91       	pop	r18
     126:	9e bf       	out	0x3e, r25	; 62
     128:	8d bf       	out	0x3d, r24	; 61
     12a:	fe b7       	in	r31, 0x3e	; 62
     12c:	ed b7       	in	r30, 0x3d	; 61
     12e:	10 a0       	ldd	r1, Z+32	; 0x20
     130:	01 a0       	ldd	r0, Z+33	; 0x21
     132:	30 a3       	std	Z+32, r19	; 0x20
     134:	21 a3       	std	Z+33, r18	; 0x21
     136:	ff 91       	pop	r31
     138:	ef 91       	pop	r30
     13a:	df 91       	pop	r29
     13c:	cf 91       	pop	r28
     13e:	bf 91       	pop	r27
     140:	af 91       	pop	r26
     142:	9f 91       	pop	r25
     144:	8f 91       	pop	r24
     146:	7f 91       	pop	r23
     148:	6f 91       	pop	r22
     14a:	5f 91       	pop	r21
     14c:	4f 91       	pop	r20
     14e:	3f 91       	pop	r19
     150:	2f 91       	pop	r18
     152:	1f 91       	pop	r17
     154:	0f 91       	pop	r16
     156:	ff 90       	pop	r15
     158:	ef 90       	pop	r14
     15a:	df 90       	pop	r13
     15c:	cf 90       	pop	r12
     15e:	bf 90       	pop	r11
     160:	af 90       	pop	r10
     162:	9f 90       	pop	r9
     164:	8f 90       	pop	r8
     166:	7f 90       	pop	r7
     168:	6f 90       	pop	r6
     16a:	5f 90       	pop	r5
     16c:	4f 90       	pop	r4
     16e:	3f 90       	pop	r3
     170:	2f 90       	pop	r2
     172:	2f be       	out	0x3f, r2	; 63
     174:	2f 90       	pop	r2
     176:	08 95       	ret

00000178 <disable_interrupts>:
//Внешние функции, специфичные для AVR
extern void start_scheduler( void );
extern void stop_scheduler( void );
// Просто функции, специфичные для AVR
void disable_interrupts(void)
{
     178:	df 93       	push	r29
     17a:	cf 93       	push	r28
     17c:	cd b7       	in	r28, 0x3d	; 61
     17e:	de b7       	in	r29, 0x3e	; 62
    cli();
     180:	f8 94       	cli
}
     182:	cf 91       	pop	r28
     184:	df 91       	pop	r29
     186:	08 95       	ret

00000188 <enable_interrupts>:
void enable_interrupts(void)
{
     188:	df 93       	push	r29
     18a:	cf 93       	push	r28
     18c:	cd b7       	in	r28, 0x3d	; 61
     18e:	de b7       	in	r29, 0x3e	; 62
    sei();
     190:	78 94       	sei
}
     192:	cf 91       	pop	r28
     194:	df 91       	pop	r29
     196:	08 95       	ret

00000198 <current_proc>:

proc_t * current_proc(void)
{
     198:	df 93       	push	r29
     19a:	cf 93       	push	r28
     19c:	cd b7       	in	r28, 0x3d	; 61
     19e:	de b7       	in	r29, 0x3e	; 62
    return kernel.sched.current_proc;
     1a0:	80 91 a2 01 	lds	r24, 0x01A2
     1a4:	90 91 a3 01 	lds	r25, 0x01A3
}
     1a8:	cf 91       	pop	r28
     1aa:	df 91       	pop	r29
     1ac:	08 95       	ret

000001ae <proc_stack_init>:

void * proc_stack_init(stack_t * sstart, code_t code, void * arg)
{
     1ae:	df 93       	push	r29
     1b0:	cf 93       	push	r28
     1b2:	00 d0       	rcall	.+0      	; 0x1b4 <proc_stack_init+0x6>
     1b4:	00 d0       	rcall	.+0      	; 0x1b6 <proc_stack_init+0x8>
     1b6:	00 d0       	rcall	.+0      	; 0x1b8 <proc_stack_init+0xa>
     1b8:	cd b7       	in	r28, 0x3d	; 61
     1ba:	de b7       	in	r29, 0x3e	; 62
     1bc:	9a 83       	std	Y+2, r25	; 0x02
     1be:	89 83       	std	Y+1, r24	; 0x01
     1c0:	7c 83       	std	Y+4, r23	; 0x04
     1c2:	6b 83       	std	Y+3, r22	; 0x03
     1c4:	5e 83       	std	Y+6, r21	; 0x06
     1c6:	4d 83       	std	Y+5, r20	; 0x05
    return osbme_init_stack( (void *)sstart, (osbme_code_t)proc_run_wrapper, (void *)arg );
     1c8:	4c e3       	ldi	r20, 0x3C	; 60
     1ca:	53 e0       	ldi	r21, 0x03	; 3
     1cc:	89 81       	ldd	r24, Y+1	; 0x01
     1ce:	9a 81       	ldd	r25, Y+2	; 0x02
     1d0:	2d 81       	ldd	r18, Y+5	; 0x05
     1d2:	3e 81       	ldd	r19, Y+6	; 0x06
     1d4:	ba 01       	movw	r22, r20
     1d6:	a9 01       	movw	r20, r18
     1d8:	0e 94 94 04 	call	0x928	; 0x928 <osbme_init_stack>
}
     1dc:	26 96       	adiw	r28, 0x06	; 6
     1de:	0f b6       	in	r0, 0x3f	; 63
     1e0:	f8 94       	cli
     1e2:	de bf       	out	0x3e, r29	; 62
     1e4:	0f be       	out	0x3f, r0	; 63
     1e6:	cd bf       	out	0x3d, r28	; 61
     1e8:	cf 91       	pop	r28
     1ea:	df 91       	pop	r29
     1ec:	08 95       	ret

000001ee <resched>:
//Через этот указатель будет вызываться обработчик прерывания
void (*kernel_isr)(void);

// Функция перепланировки
void resched(void)
{
     1ee:	df 93       	push	r29
     1f0:	cf 93       	push	r28
     1f2:	cd b7       	in	r28, 0x3d	; 61
     1f4:	de b7       	in	r29, 0x3e	; 62
    resched_flag = (bool_t)1;
     1f6:	81 e0       	ldi	r24, 0x01	; 1
     1f8:	80 93 00 01 	sts	0x0100, r24
}
     1fc:	cf 91       	pop	r28
     1fe:	df 91       	pop	r29
     200:	08 95       	ret

00000202 <kernel_process_switch>:

__attribute__((naked)) void kernel_process_switch(void)
{
    //Сразу же после обработки отложенных прерываний передаем управление процессу
    kernel_sp = osbme_store_context();
     202:	0e 94 65 00 	call	0xca	; 0xca <osbme_store_context>
     206:	90 93 a1 01 	sts	0x01A1, r25
     20a:	80 93 a0 01 	sts	0x01A0, r24
    osbme_load_context( proc_sp );
     20e:	80 91 9e 01 	lds	r24, 0x019E
     212:	90 91 9f 01 	lds	r25, 0x019F
     216:	0e 94 91 00 	call	0x122	; 0x122 <osbme_load_context>
    __asm__ __volatile__("reti"::);/// Дада, именно reti, мы же типа прерывания счас обрабатывали
     21a:	18 95       	reti

0000021c <kernel_thread>:
    osbme_load_context( kernel_sp );
    __asm__ __volatile__("ret"::);
}
///================================================================
void kernel_thread(void)
{
     21c:	df 93       	push	r29
     21e:	cf 93       	push	r28
     220:	cd b7       	in	r28, 0x3d	; 61
     222:	de b7       	in	r29, 0x3e	; 62
    while(1)
    {
        // Если надо перепланировать - перепланируем
        if( resched_flag != (bool_t)0 )
     224:	80 91 00 01 	lds	r24, 0x0100
     228:	88 23       	and	r24, r24
     22a:	61 f0       	breq	.+24     	; 0x244 <kernel_thread+0x28>
        {
            resched_flag = (bool_t)0;
     22c:	10 92 00 01 	sts	0x0100, r1
            proc_sp = sched_reschedule( proc_sp );
     230:	80 91 9e 01 	lds	r24, 0x019E
     234:	90 91 9f 01 	lds	r25, 0x019F
     238:	0e 94 ed 0e 	call	0x1dda	; 0x1dda <sched_reschedule>
     23c:	90 93 9f 01 	sts	0x019F, r25
     240:	80 93 9e 01 	sts	0x019E, r24
        }
        /// Прямая передача управления от ядра к процессу, прерывания запрещены
        kernel_process_switch();//В результате выполнения этого прерывания будут разрешены
     244:	0e 94 01 01 	call	0x202	; 0x202 <kernel_process_switch>
        /// Сюда можно попасть только из прерывания, либо из процесса, при этом прерывания опять таки запрещены
        // Обработка прерывания
        kernel_isr();
     248:	e0 91 9c 01 	lds	r30, 0x019C
     24c:	f0 91 9d 01 	lds	r31, 0x019D
     250:	09 95       	icall
     252:	e8 cf       	rjmp	.-48     	; 0x224 <kernel_thread+0x8>

00000254 <__vector_7>:
    }
}

// А вот и первое определение обработчика прерывания
BUGURT_INTERRUPT(SYSTEM_TIMER_ISR)
     254:	0e 94 65 00 	call	0xca	; 0xca <osbme_store_context>
     258:	90 93 9f 01 	sts	0x019F, r25
     25c:	80 93 9e 01 	sts	0x019E, r24
     260:	8d e3       	ldi	r24, 0x3D	; 61
     262:	91 e0       	ldi	r25, 0x01	; 1
     264:	90 93 9d 01 	sts	0x019D, r25
     268:	80 93 9c 01 	sts	0x019C, r24
     26c:	80 91 a0 01 	lds	r24, 0x01A0
     270:	90 91 a1 01 	lds	r25, 0x01A1
     274:	0e 94 91 00 	call	0x122	; 0x122 <osbme_load_context>
     278:	08 95       	ret

0000027a <__vector_7_func>:
{
     27a:	df 93       	push	r29
     27c:	cf 93       	push	r28
     27e:	cd b7       	in	r28, 0x3d	; 61
     280:	de b7       	in	r29, 0x3e	; 62
    kernel.timer++;
     282:	80 91 fc 01 	lds	r24, 0x01FC
     286:	90 91 fd 01 	lds	r25, 0x01FD
     28a:	01 96       	adiw	r24, 0x01	; 1
     28c:	90 93 fd 01 	sts	0x01FD, r25
     290:	80 93 fc 01 	sts	0x01FC, r24
    proc_sp = sched_schedule( proc_sp );
     294:	80 91 9e 01 	lds	r24, 0x019E
     298:	90 91 9f 01 	lds	r25, 0x019F
     29c:	0e 94 35 0e 	call	0x1c6a	; 0x1c6a <sched_schedule>
     2a0:	90 93 9f 01 	sts	0x019F, r25
     2a4:	80 93 9e 01 	sts	0x019E, r24
}
     2a8:	cf 91       	pop	r28
     2aa:	df 91       	pop	r29
     2ac:	08 95       	ret

000002ae <init_bugurt>:

/***************************************************************************************************************/
// Функции общего пользования

void init_bugurt(void)
{
     2ae:	df 93       	push	r29
     2b0:	cf 93       	push	r28
     2b2:	cd b7       	in	r28, 0x3d	; 61
     2b4:	de b7       	in	r29, 0x3e	; 62
    cli();
     2b6:	f8 94       	cli
    kernel_init();
     2b8:	0e 94 96 09 	call	0x132c	; 0x132c <kernel_init>
    proc_sp = osbme_init_stack( &idle_stack[CONFIG_IDLE_STACK_SIZE-1], idle_main, 0);
     2bc:	8b e9       	ldi	r24, 0x9B	; 155
     2be:	91 e0       	ldi	r25, 0x01	; 1
     2c0:	29 e1       	ldi	r18, 0x19	; 25
     2c2:	32 e1       	ldi	r19, 0x12	; 18
     2c4:	b9 01       	movw	r22, r18
     2c6:	40 e0       	ldi	r20, 0x00	; 0
     2c8:	50 e0       	ldi	r21, 0x00	; 0
     2ca:	0e 94 94 04 	call	0x928	; 0x928 <osbme_init_stack>
     2ce:	90 93 9f 01 	sts	0x019F, r25
     2d2:	80 93 9e 01 	sts	0x019E, r24
    kernel.idle.spointer = proc_sp;
     2d6:	80 91 9e 01 	lds	r24, 0x019E
     2da:	90 91 9f 01 	lds	r25, 0x019F
     2de:	90 93 f9 01 	sts	0x01F9, r25
     2e2:	80 93 f8 01 	sts	0x01F8, r24
    kernel.sched.nested_crit_sec = (count_t)1;
     2e6:	81 e0       	ldi	r24, 0x01	; 1
     2e8:	90 e0       	ldi	r25, 0x00	; 0
     2ea:	90 93 cb 01 	sts	0x01CB, r25
     2ee:	80 93 ca 01 	sts	0x01CA, r24
}
     2f2:	cf 91       	pop	r28
     2f4:	df 91       	pop	r29
     2f6:	08 95       	ret

000002f8 <start_bugurt>:
void start_bugurt(void)
{
     2f8:	df 93       	push	r29
     2fa:	cf 93       	push	r28
     2fc:	cd b7       	in	r28, 0x3d	; 61
     2fe:	de b7       	in	r29, 0x3e	; 62
    start_scheduler();
     300:	0e 94 45 11 	call	0x228a	; 0x228a <start_scheduler>
    kernel.sched.nested_crit_sec = (count_t)0;
     304:	10 92 cb 01 	sts	0x01CB, r1
     308:	10 92 ca 01 	sts	0x01CA, r1
    kernel_thread();
     30c:	0e 94 0e 01 	call	0x21c	; 0x21c <kernel_thread>
}
     310:	cf 91       	pop	r28
     312:	df 91       	pop	r29
     314:	08 95       	ret

00000316 <do_syscall>:
    scall_mutex_try_lock,
    scall_mutex_unlock
};

void do_syscall(void)
{
     316:	df 93       	push	r29
     318:	cf 93       	push	r28
     31a:	00 d0       	rcall	.+0      	; 0x31c <do_syscall+0x6>
     31c:	00 d0       	rcall	.+0      	; 0x31e <do_syscall+0x8>
     31e:	00 d0       	rcall	.+0      	; 0x320 <do_syscall+0xa>
     320:	cd b7       	in	r28, 0x3d	; 61
     322:	de b7       	in	r29, 0x3e	; 62
    if( syscall_num != (unsigned char)0 )
     324:	80 91 02 01 	lds	r24, 0x0102
     328:	88 23       	and	r24, r24
     32a:	01 f1       	breq	.+64     	; 0x36c <do_syscall+0x56>
    {
        code_t syscall_func;
        syscall_func = (code_t)pgm_read_word(syscall_routine + syscall_num);
     32c:	80 91 02 01 	lds	r24, 0x0102
     330:	88 2f       	mov	r24, r24
     332:	90 e0       	ldi	r25, 0x00	; 0
     334:	88 0f       	add	r24, r24
     336:	99 1f       	adc	r25, r25
     338:	88 59       	subi	r24, 0x98	; 152
     33a:	9f 4f       	sbci	r25, 0xFF	; 255
     33c:	9c 83       	std	Y+4, r25	; 0x04
     33e:	8b 83       	std	Y+3, r24	; 0x03
     340:	8b 81       	ldd	r24, Y+3	; 0x03
     342:	9c 81       	ldd	r25, Y+4	; 0x04
     344:	fc 01       	movw	r30, r24
     346:	85 91       	lpm	r24, Z+
     348:	94 91       	lpm	r25, Z+
     34a:	9a 83       	std	Y+2, r25	; 0x02
     34c:	89 83       	std	Y+1, r24	; 0x01
     34e:	fc 83       	std	Y+4, r31	; 0x04
     350:	eb 83       	std	Y+3, r30	; 0x03
     352:	89 81       	ldd	r24, Y+1	; 0x01
     354:	9a 81       	ldd	r25, Y+2	; 0x02
     356:	9e 83       	std	Y+6, r25	; 0x06
     358:	8d 83       	std	Y+5, r24	; 0x05
        syscall_func(syscall_arg);
     35a:	80 91 03 01 	lds	r24, 0x0103
     35e:	90 91 04 01 	lds	r25, 0x0104
     362:	ed 81       	ldd	r30, Y+5	; 0x05
     364:	fe 81       	ldd	r31, Y+6	; 0x06
     366:	09 95       	icall
        syscall_num = (unsigned char)0;
     368:	10 92 02 01 	sts	0x0102, r1
    }
}
     36c:	26 96       	adiw	r28, 0x06	; 6
     36e:	0f b6       	in	r0, 0x3f	; 63
     370:	f8 94       	cli
     372:	de bf       	out	0x3e, r29	; 62
     374:	0f be       	out	0x3f, r0	; 63
     376:	cd bf       	out	0x3d, r28	; 61
     378:	cf 91       	pop	r28
     37a:	df 91       	pop	r29
     37c:	08 95       	ret

0000037e <__vector_2>:
{
    unsigned char num;
    void * arg;
} syscall_data_t;

BUGURT_INTERRUPT(SYSCALL_ISR)
     37e:	0e 94 65 00 	call	0xca	; 0xca <osbme_store_context>
     382:	90 93 9f 01 	sts	0x019F, r25
     386:	80 93 9e 01 	sts	0x019E, r24
     38a:	82 ed       	ldi	r24, 0xD2	; 210
     38c:	91 e0       	ldi	r25, 0x01	; 1
     38e:	90 93 9d 01 	sts	0x019D, r25
     392:	80 93 9c 01 	sts	0x019C, r24
     396:	80 91 a0 01 	lds	r24, 0x01A0
     39a:	90 91 a1 01 	lds	r25, 0x01A1
     39e:	0e 94 91 00 	call	0x122	; 0x122 <osbme_load_context>
     3a2:	08 95       	ret

000003a4 <__vector_2_func>:
{
     3a4:	df 93       	push	r29
     3a6:	cf 93       	push	r28
     3a8:	cd b7       	in	r28, 0x3d	; 61
     3aa:	de b7       	in	r29, 0x3e	; 62
    /// Извлечение syscall_num и syscall_arg из стека процесса
    tos = (unsigned char *)proc_sp + PROC_STACK_OFFSET;
     3ac:	80 91 9e 01 	lds	r24, 0x019E
     3b0:	90 91 9f 01 	lds	r25, 0x019F
     3b4:	07 96       	adiw	r24, 0x07	; 7
     3b6:	90 93 16 01 	sts	0x0116, r25
     3ba:	80 93 15 01 	sts	0x0115, r24
    temp = (unsigned short)*tos++;
     3be:	e0 91 15 01 	lds	r30, 0x0115
     3c2:	f0 91 16 01 	lds	r31, 0x0116
     3c6:	80 81       	ld	r24, Z
     3c8:	88 2f       	mov	r24, r24
     3ca:	90 e0       	ldi	r25, 0x00	; 0
     3cc:	90 93 18 01 	sts	0x0118, r25
     3d0:	80 93 17 01 	sts	0x0117, r24
     3d4:	cf 01       	movw	r24, r30
     3d6:	01 96       	adiw	r24, 0x01	; 1
     3d8:	90 93 16 01 	sts	0x0116, r25
     3dc:	80 93 15 01 	sts	0x0115, r24
    temp <<= 8;
     3e0:	80 91 17 01 	lds	r24, 0x0117
     3e4:	90 91 18 01 	lds	r25, 0x0118
     3e8:	98 2f       	mov	r25, r24
     3ea:	88 27       	eor	r24, r24
     3ec:	90 93 18 01 	sts	0x0118, r25
     3f0:	80 93 17 01 	sts	0x0117, r24
    temp |= (unsigned short)*tos;
     3f4:	e0 91 15 01 	lds	r30, 0x0115
     3f8:	f0 91 16 01 	lds	r31, 0x0116
     3fc:	80 81       	ld	r24, Z
     3fe:	28 2f       	mov	r18, r24
     400:	30 e0       	ldi	r19, 0x00	; 0
     402:	80 91 17 01 	lds	r24, 0x0117
     406:	90 91 18 01 	lds	r25, 0x0118
     40a:	82 2b       	or	r24, r18
     40c:	93 2b       	or	r25, r19
     40e:	90 93 18 01 	sts	0x0118, r25
     412:	80 93 17 01 	sts	0x0117, r24

    syscall_num = ((syscall_data_t *)temp)->num;
     416:	80 91 17 01 	lds	r24, 0x0117
     41a:	90 91 18 01 	lds	r25, 0x0118
     41e:	fc 01       	movw	r30, r24
     420:	80 81       	ld	r24, Z
     422:	80 93 02 01 	sts	0x0102, r24
    syscall_arg = ((syscall_data_t *)temp)->arg;
     426:	80 91 17 01 	lds	r24, 0x0117
     42a:	90 91 18 01 	lds	r25, 0x0118
     42e:	fc 01       	movw	r30, r24
     430:	81 81       	ldd	r24, Z+1	; 0x01
     432:	92 81       	ldd	r25, Z+2	; 0x02
     434:	90 93 04 01 	sts	0x0104, r25
     438:	80 93 03 01 	sts	0x0103, r24

    do_syscall();
     43c:	0e 94 8b 01 	call	0x316	; 0x316 <do_syscall>
}
     440:	cf 91       	pop	r28
     442:	df 91       	pop	r29
     444:	08 95       	ret

00000446 <_syscall>:

syscall_data_t * _syscall( syscall_data_t * arg )
{
     446:	df 93       	push	r29
     448:	cf 93       	push	r28
     44a:	00 d0       	rcall	.+0      	; 0x44c <_syscall+0x6>
     44c:	cd b7       	in	r28, 0x3d	; 61
     44e:	de b7       	in	r29, 0x3e	; 62
     450:	9a 83       	std	Y+2, r25	; 0x02
     452:	89 83       	std	Y+1, r24	; 0x01
    cli();
     454:	f8 94       	cli
    raise_syscall_interrupt();
     456:	0e 94 22 11 	call	0x2244	; 0x2244 <raise_syscall_interrupt>
    sei();
     45a:	78 94       	sei
    return arg;
     45c:	89 81       	ldd	r24, Y+1	; 0x01
     45e:	9a 81       	ldd	r25, Y+2	; 0x02
}
     460:	0f 90       	pop	r0
     462:	0f 90       	pop	r0
     464:	cf 91       	pop	r28
     466:	df 91       	pop	r29
     468:	08 95       	ret

0000046a <syscall>:

static syscall_data_t scdata;
void syscall( unsigned char num, void * arg )
{
     46a:	df 93       	push	r29
     46c:	cf 93       	push	r28
     46e:	00 d0       	rcall	.+0      	; 0x470 <syscall+0x6>
     470:	0f 92       	push	r0
     472:	cd b7       	in	r28, 0x3d	; 61
     474:	de b7       	in	r29, 0x3e	; 62
     476:	89 83       	std	Y+1, r24	; 0x01
     478:	7b 83       	std	Y+3, r23	; 0x03
     47a:	6a 83       	std	Y+2, r22	; 0x02
     scdata.num = num;
     47c:	89 81       	ldd	r24, Y+1	; 0x01
     47e:	80 93 19 01 	sts	0x0119, r24
     scdata.arg = arg;
     482:	8a 81       	ldd	r24, Y+2	; 0x02
     484:	9b 81       	ldd	r25, Y+3	; 0x03
     486:	90 93 1b 01 	sts	0x011B, r25
     48a:	80 93 1a 01 	sts	0x011A, r24
     _syscall( &scdata );
     48e:	89 e1       	ldi	r24, 0x19	; 25
     490:	91 e0       	ldi	r25, 0x01	; 1
     492:	0e 94 23 02 	call	0x446	; 0x446 <_syscall>
     SYSCALL_DELLAY();
     496:	00 00       	nop
     498:	00 00       	nop
     49a:	00 00       	nop
}
     49c:	0f 90       	pop	r0
     49e:	0f 90       	pop	r0
     4a0:	0f 90       	pop	r0
     4a2:	cf 91       	pop	r28
     4a4:	df 91       	pop	r29
     4a6:	08 95       	ret

000004a8 <scall_proc_init>:
///                 ОБРАБОТЧИКИ СИСТЕМНЫХ ВЫЗОВОВ
///=================================================================
///                   Управление процессами
//0
void scall_proc_init( void * arg )
{
     4a8:	8f 92       	push	r8
     4aa:	af 92       	push	r10
     4ac:	bf 92       	push	r11
     4ae:	cf 92       	push	r12
     4b0:	df 92       	push	r13
     4b2:	ef 92       	push	r14
     4b4:	ff 92       	push	r15
     4b6:	0f 93       	push	r16
     4b8:	1f 93       	push	r17
     4ba:	df 93       	push	r29
     4bc:	cf 93       	push	r28
     4be:	00 d0       	rcall	.+0      	; 0x4c0 <scall_proc_init+0x18>
     4c0:	cd b7       	in	r28, 0x3d	; 61
     4c2:	de b7       	in	r29, 0x3e	; 62
     4c4:	9a 83       	std	Y+2, r25	; 0x02
     4c6:	89 83       	std	Y+1, r24	; 0x01
    proc_init_isr(
     4c8:	e9 81       	ldd	r30, Y+1	; 0x01
     4ca:	fa 81       	ldd	r31, Y+2	; 0x02
     4cc:	80 81       	ld	r24, Z
     4ce:	91 81       	ldd	r25, Z+1	; 0x01
     4d0:	e9 81       	ldd	r30, Y+1	; 0x01
     4d2:	fa 81       	ldd	r31, Y+2	; 0x02
     4d4:	22 81       	ldd	r18, Z+2	; 0x02
     4d6:	33 81       	ldd	r19, Z+3	; 0x03
     4d8:	e9 81       	ldd	r30, Y+1	; 0x01
     4da:	fa 81       	ldd	r31, Y+2	; 0x02
     4dc:	44 81       	ldd	r20, Z+4	; 0x04
     4de:	55 81       	ldd	r21, Z+5	; 0x05
     4e0:	e9 81       	ldd	r30, Y+1	; 0x01
     4e2:	fa 81       	ldd	r31, Y+2	; 0x02
     4e4:	06 81       	ldd	r16, Z+6	; 0x06
     4e6:	17 81       	ldd	r17, Z+7	; 0x07
     4e8:	e9 81       	ldd	r30, Y+1	; 0x01
     4ea:	fa 81       	ldd	r31, Y+2	; 0x02
     4ec:	e0 84       	ldd	r14, Z+8	; 0x08
     4ee:	f1 84       	ldd	r15, Z+9	; 0x09
     4f0:	e9 81       	ldd	r30, Y+1	; 0x01
     4f2:	fa 81       	ldd	r31, Y+2	; 0x02
     4f4:	c2 84       	ldd	r12, Z+10	; 0x0a
     4f6:	d3 84       	ldd	r13, Z+11	; 0x0b
     4f8:	e9 81       	ldd	r30, Y+1	; 0x01
     4fa:	fa 81       	ldd	r31, Y+2	; 0x02
     4fc:	b4 84       	ldd	r11, Z+12	; 0x0c
     4fe:	e9 81       	ldd	r30, Y+1	; 0x01
     500:	fa 81       	ldd	r31, Y+2	; 0x02
     502:	a5 85       	ldd	r26, Z+13	; 0x0d
     504:	b6 85       	ldd	r27, Z+14	; 0x0e
     506:	e9 81       	ldd	r30, Y+1	; 0x01
     508:	fa 81       	ldd	r31, Y+2	; 0x02
     50a:	e7 85       	ldd	r30, Z+15	; 0x0f
     50c:	b9 01       	movw	r22, r18
     50e:	98 01       	movw	r18, r16
     510:	87 01       	movw	r16, r14
     512:	76 01       	movw	r14, r12
     514:	cb 2c       	mov	r12, r11
     516:	5d 01       	movw	r10, r26
     518:	8e 2e       	mov	r8, r30
     51a:	0e 94 6c 0b 	call	0x16d8	; 0x16d8 <proc_init_isr>
              ((proc_init_arg_t *)arg)->sstart,
              ((proc_init_arg_t *)arg)->prio,
              ((proc_init_arg_t *)arg)->time_quant,
              ((proc_init_arg_t *)arg)->is_rt
              );
}
     51e:	0f 90       	pop	r0
     520:	0f 90       	pop	r0
     522:	cf 91       	pop	r28
     524:	df 91       	pop	r29
     526:	1f 91       	pop	r17
     528:	0f 91       	pop	r16
     52a:	ff 90       	pop	r15
     52c:	ef 90       	pop	r14
     52e:	df 90       	pop	r13
     530:	cf 90       	pop	r12
     532:	bf 90       	pop	r11
     534:	af 90       	pop	r10
     536:	8f 90       	pop	r8
     538:	08 95       	ret

0000053a <scall_proc_run>:
    syscall(0,(void *)&scarg);
}
//---------------------------------------------------------------------------------------------
//1
void scall_proc_run( void * arg )
{
     53a:	0f 93       	push	r16
     53c:	1f 93       	push	r17
     53e:	df 93       	push	r29
     540:	cf 93       	push	r28
     542:	00 d0       	rcall	.+0      	; 0x544 <scall_proc_run+0xa>
     544:	cd b7       	in	r28, 0x3d	; 61
     546:	de b7       	in	r29, 0x3e	; 62
     548:	9a 83       	std	Y+2, r25	; 0x02
     54a:	89 83       	std	Y+1, r24	; 0x01
    ((proc_runtime_arg_t *)arg)->scall_ret = proc_run_isr( ((proc_runtime_arg_t *)arg)->proc );
     54c:	09 81       	ldd	r16, Y+1	; 0x01
     54e:	1a 81       	ldd	r17, Y+2	; 0x02
     550:	e9 81       	ldd	r30, Y+1	; 0x01
     552:	fa 81       	ldd	r31, Y+2	; 0x02
     554:	80 81       	ld	r24, Z
     556:	91 81       	ldd	r25, Z+1	; 0x01
     558:	0e 94 12 0c 	call	0x1824	; 0x1824 <proc_run_isr>
     55c:	f8 01       	movw	r30, r16
     55e:	82 83       	std	Z+2, r24	; 0x02
}
     560:	0f 90       	pop	r0
     562:	0f 90       	pop	r0
     564:	cf 91       	pop	r28
     566:	df 91       	pop	r29
     568:	1f 91       	pop	r17
     56a:	0f 91       	pop	r16
     56c:	08 95       	ret

0000056e <scall_proc_restart>:
    return scarg.scall_ret;
}
//---------------------------------------------------------------------------------------------
//2
void scall_proc_restart( void * arg )
{
     56e:	0f 93       	push	r16
     570:	1f 93       	push	r17
     572:	df 93       	push	r29
     574:	cf 93       	push	r28
     576:	00 d0       	rcall	.+0      	; 0x578 <scall_proc_restart+0xa>
     578:	cd b7       	in	r28, 0x3d	; 61
     57a:	de b7       	in	r29, 0x3e	; 62
     57c:	9a 83       	std	Y+2, r25	; 0x02
     57e:	89 83       	std	Y+1, r24	; 0x01
    ((proc_runtime_arg_t *)arg)->scall_ret = proc_restart_isr( ((proc_runtime_arg_t *)arg)->proc );
     580:	09 81       	ldd	r16, Y+1	; 0x01
     582:	1a 81       	ldd	r17, Y+2	; 0x02
     584:	e9 81       	ldd	r30, Y+1	; 0x01
     586:	fa 81       	ldd	r31, Y+2	; 0x02
     588:	80 81       	ld	r24, Z
     58a:	91 81       	ldd	r25, Z+1	; 0x01
     58c:	0e 94 32 0c 	call	0x1864	; 0x1864 <proc_restart_isr>
     590:	f8 01       	movw	r30, r16
     592:	82 83       	std	Z+2, r24	; 0x02
}
     594:	0f 90       	pop	r0
     596:	0f 90       	pop	r0
     598:	cf 91       	pop	r28
     59a:	df 91       	pop	r29
     59c:	1f 91       	pop	r17
     59e:	0f 91       	pop	r16
     5a0:	08 95       	ret

000005a2 <scall_proc_stop>:
    return scarg.scall_ret;
}
//---------------------------------------------------------------------------------------------
//3
void scall_proc_stop( void * arg )
{
     5a2:	0f 93       	push	r16
     5a4:	1f 93       	push	r17
     5a6:	df 93       	push	r29
     5a8:	cf 93       	push	r28
     5aa:	00 d0       	rcall	.+0      	; 0x5ac <scall_proc_stop+0xa>
     5ac:	cd b7       	in	r28, 0x3d	; 61
     5ae:	de b7       	in	r29, 0x3e	; 62
     5b0:	9a 83       	std	Y+2, r25	; 0x02
     5b2:	89 83       	std	Y+1, r24	; 0x01
    ((proc_runtime_arg_t *)arg)->scall_ret = proc_stop_isr( ((proc_runtime_arg_t *)arg)->proc );
     5b4:	09 81       	ldd	r16, Y+1	; 0x01
     5b6:	1a 81       	ldd	r17, Y+2	; 0x02
     5b8:	e9 81       	ldd	r30, Y+1	; 0x01
     5ba:	fa 81       	ldd	r31, Y+2	; 0x02
     5bc:	80 81       	ld	r24, Z
     5be:	91 81       	ldd	r25, Z+1	; 0x01
     5c0:	0e 94 94 0c 	call	0x1928	; 0x1928 <proc_stop_isr>
     5c4:	f8 01       	movw	r30, r16
     5c6:	82 83       	std	Z+2, r24	; 0x02
}
     5c8:	0f 90       	pop	r0
     5ca:	0f 90       	pop	r0
     5cc:	cf 91       	pop	r28
     5ce:	df 91       	pop	r29
     5d0:	1f 91       	pop	r17
     5d2:	0f 91       	pop	r16
     5d4:	08 95       	ret

000005d6 <scall_proc_self_stop>:
}

//---------------------------------------------------------------------------------------------
//4
void scall_proc_self_stop( void * arg )
{
     5d6:	df 93       	push	r29
     5d8:	cf 93       	push	r28
     5da:	00 d0       	rcall	.+0      	; 0x5dc <scall_proc_self_stop+0x6>
     5dc:	00 d0       	rcall	.+0      	; 0x5de <scall_proc_self_stop+0x8>
     5de:	cd b7       	in	r28, 0x3d	; 61
     5e0:	de b7       	in	r29, 0x3e	; 62
     5e2:	9c 83       	std	Y+4, r25	; 0x04
     5e4:	8b 83       	std	Y+3, r24	; 0x03
    proc_t * proc = kernel.sched.current_proc;
     5e6:	80 91 a2 01 	lds	r24, 0x01A2
     5ea:	90 91 a3 01 	lds	r25, 0x01A3
     5ee:	9a 83       	std	Y+2, r25	; 0x02
     5f0:	89 83       	std	Y+1, r24	; 0x01
    _proc_stop( proc );
     5f2:	89 81       	ldd	r24, Y+1	; 0x01
     5f4:	9a 81       	ldd	r25, Y+2	; 0x02
     5f6:	0e 94 7b 0c 	call	0x18f6	; 0x18f6 <_proc_stop>
}
     5fa:	0f 90       	pop	r0
     5fc:	0f 90       	pop	r0
     5fe:	0f 90       	pop	r0
     600:	0f 90       	pop	r0
     602:	cf 91       	pop	r28
     604:	df 91       	pop	r29
     606:	08 95       	ret

00000608 <scall_proc_terminate>:
}
//---------------------------------------------------------------------------------------------
//5
/// Останов процесса после выхода из pmain, для обертки proc_run_wrapper
void scall_proc_terminate( void * arg )
{
     608:	df 93       	push	r29
     60a:	cf 93       	push	r28
     60c:	00 d0       	rcall	.+0      	; 0x60e <scall_proc_terminate+0x6>
     60e:	00 d0       	rcall	.+0      	; 0x610 <scall_proc_terminate+0x8>
     610:	cd b7       	in	r28, 0x3d	; 61
     612:	de b7       	in	r29, 0x3e	; 62
     614:	9c 83       	std	Y+4, r25	; 0x04
     616:	8b 83       	std	Y+3, r24	; 0x03
    proc_t * proc = (proc_t *)arg;
     618:	8b 81       	ldd	r24, Y+3	; 0x03
     61a:	9c 81       	ldd	r25, Y+4	; 0x04
     61c:	9a 83       	std	Y+2, r25	; 0x02
     61e:	89 83       	std	Y+1, r24	; 0x01
    // Обрабатываем флаги
    // Нельзя выходить из pmain не освободив все захваченные ресурсы, за это процесс будет "убит"!
    if( proc->flags & PROC_FLG_HOLD ) proc->flags |= PROC_FLG_DEAD;
     620:	e9 81       	ldd	r30, Y+1	; 0x01
     622:	fa 81       	ldd	r31, Y+2	; 0x02
     624:	83 85       	ldd	r24, Z+11	; 0x0b
     626:	88 2f       	mov	r24, r24
     628:	90 e0       	ldi	r25, 0x00	; 0
     62a:	84 70       	andi	r24, 0x04	; 4
     62c:	90 70       	andi	r25, 0x00	; 0
     62e:	00 97       	sbiw	r24, 0x00	; 0
     630:	41 f0       	breq	.+16     	; 0x642 <scall_proc_terminate+0x3a>
     632:	e9 81       	ldd	r30, Y+1	; 0x01
     634:	fa 81       	ldd	r31, Y+2	; 0x02
     636:	83 85       	ldd	r24, Z+11	; 0x0b
     638:	80 68       	ori	r24, 0x80	; 128
     63a:	e9 81       	ldd	r30, Y+1	; 0x01
     63c:	fa 81       	ldd	r31, Y+2	; 0x02
     63e:	83 87       	std	Z+11, r24	; 0x0b
     640:	07 c0       	rjmp	.+14     	; 0x650 <scall_proc_terminate+0x48>
    // В противном случае - просто завершаем процесс
    else proc->flags |= PROC_FLG_END;
     642:	e9 81       	ldd	r30, Y+1	; 0x01
     644:	fa 81       	ldd	r31, Y+2	; 0x02
     646:	83 85       	ldd	r24, Z+11	; 0x0b
     648:	80 64       	ori	r24, 0x40	; 64
     64a:	e9 81       	ldd	r30, Y+1	; 0x01
     64c:	fa 81       	ldd	r31, Y+2	; 0x02
     64e:	83 87       	std	Z+11, r24	; 0x0b
    proc->flags &= ~(PROC_FLG_PRE_END|PROC_FLG_RUN);
     650:	e9 81       	ldd	r30, Y+1	; 0x01
     652:	fa 81       	ldd	r31, Y+2	; 0x02
     654:	83 85       	ldd	r24, Z+11	; 0x0b
     656:	8d 7d       	andi	r24, 0xDD	; 221
     658:	e9 81       	ldd	r30, Y+1	; 0x01
     65a:	fa 81       	ldd	r31, Y+2	; 0x02
     65c:	83 87       	std	Z+11, r24	; 0x0b
    // Останов
    _proc_stop_( proc );
     65e:	89 81       	ldd	r24, Y+1	; 0x01
     660:	9a 81       	ldd	r25, Y+2	; 0x02
     662:	0e 94 b3 07 	call	0xf66	; 0xf66 <gitem_cut>
    // Выполнить перепланировку
    resched();
     666:	0e 94 f7 00 	call	0x1ee	; 0x1ee <resched>
}
     66a:	0f 90       	pop	r0
     66c:	0f 90       	pop	r0
     66e:	0f 90       	pop	r0
     670:	0f 90       	pop	r0
     672:	cf 91       	pop	r28
     674:	df 91       	pop	r29
     676:	08 95       	ret

00000678 <proc_run_wrapper>:
void proc_run_wrapper( proc_t * proc )
{
     678:	df 93       	push	r29
     67a:	cf 93       	push	r28
     67c:	00 d0       	rcall	.+0      	; 0x67e <proc_run_wrapper+0x6>
     67e:	00 d0       	rcall	.+0      	; 0x680 <proc_run_wrapper+0x8>
     680:	00 d0       	rcall	.+0      	; 0x682 <proc_run_wrapper+0xa>
     682:	cd b7       	in	r28, 0x3d	; 61
     684:	de b7       	in	r29, 0x3e	; 62
     686:	9e 83       	std	Y+6, r25	; 0x06
     688:	8d 83       	std	Y+5, r24	; 0x05
    //Атомарно читаем pmain и arg
    cli();
     68a:	f8 94       	cli
    code_t pmain = proc->pmain;
     68c:	ed 81       	ldd	r30, Y+5	; 0x05
     68e:	fe 81       	ldd	r31, Y+6	; 0x06
     690:	82 a1       	ldd	r24, Z+34	; 0x22
     692:	93 a1       	ldd	r25, Z+35	; 0x23
     694:	9c 83       	std	Y+4, r25	; 0x04
     696:	8b 83       	std	Y+3, r24	; 0x03
    void * arg = proc->arg;
     698:	ed 81       	ldd	r30, Y+5	; 0x05
     69a:	fe 81       	ldd	r31, Y+6	; 0x06
     69c:	80 a5       	ldd	r24, Z+40	; 0x28
     69e:	91 a5       	ldd	r25, Z+41	; 0x29
     6a0:	9a 83       	std	Y+2, r25	; 0x02
     6a2:	89 83       	std	Y+1, r24	; 0x01
    sei();
     6a4:	78 94       	sei
    //Выполняем pmain
    pmain( arg );
     6a6:	89 81       	ldd	r24, Y+1	; 0x01
     6a8:	9a 81       	ldd	r25, Y+2	; 0x02
     6aa:	eb 81       	ldd	r30, Y+3	; 0x03
     6ac:	fc 81       	ldd	r31, Y+4	; 0x04
     6ae:	09 95       	icall
    // Завершаем процесс
    syscall(5,(void *)proc);
     6b0:	2d 81       	ldd	r18, Y+5	; 0x05
     6b2:	3e 81       	ldd	r19, Y+6	; 0x06
     6b4:	85 e0       	ldi	r24, 0x05	; 5
     6b6:	b9 01       	movw	r22, r18
     6b8:	0e 94 35 02 	call	0x46a	; 0x46a <syscall>
}
     6bc:	26 96       	adiw	r28, 0x06	; 6
     6be:	0f b6       	in	r0, 0x3f	; 63
     6c0:	f8 94       	cli
     6c2:	de bf       	out	0x3e, r29	; 62
     6c4:	0f be       	out	0x3f, r0	; 63
     6c6:	cd bf       	out	0x3d, r28	; 61
     6c8:	cf 91       	pop	r28
     6ca:	df 91       	pop	r29
     6cc:	08 95       	ret

000006ce <scall_proc_flag_stop>:
//---------------------------------------------------------------------------------------------
//6
void scall_proc_flag_stop( void * arg )
{
     6ce:	df 93       	push	r29
     6d0:	cf 93       	push	r28
     6d2:	00 d0       	rcall	.+0      	; 0x6d4 <scall_proc_flag_stop+0x6>
     6d4:	cd b7       	in	r28, 0x3d	; 61
     6d6:	de b7       	in	r29, 0x3e	; 62
     6d8:	9a 83       	std	Y+2, r25	; 0x02
     6da:	89 83       	std	Y+1, r24	; 0x01
    _proc_flag_stop_isr( *((flag_t *)arg) );
     6dc:	e9 81       	ldd	r30, Y+1	; 0x01
     6de:	fa 81       	ldd	r31, Y+2	; 0x02
     6e0:	80 81       	ld	r24, Z
     6e2:	0e 94 c4 0c 	call	0x1988	; 0x1988 <_proc_flag_stop_isr>
}
     6e6:	0f 90       	pop	r0
     6e8:	0f 90       	pop	r0
     6ea:	cf 91       	pop	r28
     6ec:	df 91       	pop	r29
     6ee:	08 95       	ret

000006f0 <scall_sig_init>:
///=================================================================
///                         Сигналы
//7
void scall_sig_init( void * arg )
{
     6f0:	df 93       	push	r29
     6f2:	cf 93       	push	r28
     6f4:	00 d0       	rcall	.+0      	; 0x6f6 <scall_sig_init+0x6>
     6f6:	cd b7       	in	r28, 0x3d	; 61
     6f8:	de b7       	in	r29, 0x3e	; 62
     6fa:	9a 83       	std	Y+2, r25	; 0x02
     6fc:	89 83       	std	Y+1, r24	; 0x01
    sig_init_isr( (sig_t *)arg );
     6fe:	89 81       	ldd	r24, Y+1	; 0x01
     700:	9a 81       	ldd	r25, Y+2	; 0x02
     702:	0e 94 ce 0f 	call	0x1f9c	; 0x1f9c <sig_init_isr>
}
     706:	0f 90       	pop	r0
     708:	0f 90       	pop	r0
     70a:	cf 91       	pop	r28
     70c:	df 91       	pop	r29
     70e:	08 95       	ret

00000710 <scall_sig_wait>:
    syscall( 7, (void *)sig );
}
//---------------------------------------------------------------------------------------------
//8
void scall_sig_wait( void * arg )
{
     710:	df 93       	push	r29
     712:	cf 93       	push	r28
     714:	00 d0       	rcall	.+0      	; 0x716 <scall_sig_wait+0x6>
     716:	cd b7       	in	r28, 0x3d	; 61
     718:	de b7       	in	r29, 0x3e	; 62
     71a:	9a 83       	std	Y+2, r25	; 0x02
     71c:	89 83       	std	Y+1, r24	; 0x01
    sig_wait_stage_1_isr( (sig_t *)arg );
     71e:	89 81       	ldd	r24, Y+1	; 0x01
     720:	9a 81       	ldd	r25, Y+2	; 0x02
     722:	0e 94 de 0f 	call	0x1fbc	; 0x1fbc <sig_wait_stage_1_isr>
}
     726:	0f 90       	pop	r0
     728:	0f 90       	pop	r0
     72a:	cf 91       	pop	r28
     72c:	df 91       	pop	r29
     72e:	08 95       	ret

00000730 <sig_wait>:
void sig_wait( sig_t * sig )
{
     730:	df 93       	push	r29
     732:	cf 93       	push	r28
     734:	00 d0       	rcall	.+0      	; 0x736 <sig_wait+0x6>
     736:	0f 92       	push	r0
     738:	cd b7       	in	r28, 0x3d	; 61
     73a:	de b7       	in	r29, 0x3e	; 62
     73c:	9b 83       	std	Y+3, r25	; 0x03
     73e:	8a 83       	std	Y+2, r24	; 0x02
    const flag_t mask = ~PROC_FLG_WAIT;
     740:	8f ee       	ldi	r24, 0xEF	; 239
     742:	89 83       	std	Y+1, r24	; 0x01
    syscall( 8, (void *)sig );
     744:	2a 81       	ldd	r18, Y+2	; 0x02
     746:	3b 81       	ldd	r19, Y+3	; 0x03
     748:	88 e0       	ldi	r24, 0x08	; 8
     74a:	b9 01       	movw	r22, r18
     74c:	0e 94 35 02 	call	0x46a	; 0x46a <syscall>
    syscall( 6, (void *)&mask );/// Останов в случае необходимости
     750:	86 e0       	ldi	r24, 0x06	; 6
     752:	9e 01       	movw	r18, r28
     754:	2f 5f       	subi	r18, 0xFF	; 255
     756:	3f 4f       	sbci	r19, 0xFF	; 255
     758:	b9 01       	movw	r22, r18
     75a:	0e 94 35 02 	call	0x46a	; 0x46a <syscall>
}
     75e:	0f 90       	pop	r0
     760:	0f 90       	pop	r0
     762:	0f 90       	pop	r0
     764:	cf 91       	pop	r28
     766:	df 91       	pop	r29
     768:	08 95       	ret

0000076a <scall_sig_signal>:
//---------------------------------------------------------------------------------------------
//9
void scall_sig_signal( void * arg )
{
     76a:	df 93       	push	r29
     76c:	cf 93       	push	r28
     76e:	00 d0       	rcall	.+0      	; 0x770 <scall_sig_signal+0x6>
     770:	cd b7       	in	r28, 0x3d	; 61
     772:	de b7       	in	r29, 0x3e	; 62
     774:	9a 83       	std	Y+2, r25	; 0x02
     776:	89 83       	std	Y+1, r24	; 0x01
    sig_signal_isr( (sig_t *)arg );
     778:	89 81       	ldd	r24, Y+1	; 0x01
     77a:	9a 81       	ldd	r25, Y+2	; 0x02
     77c:	0e 94 03 10 	call	0x2006	; 0x2006 <sig_signal_isr>
}
     780:	0f 90       	pop	r0
     782:	0f 90       	pop	r0
     784:	cf 91       	pop	r28
     786:	df 91       	pop	r29
     788:	08 95       	ret

0000078a <sig_signal>:
void sig_signal( sig_t * sig )
{
     78a:	df 93       	push	r29
     78c:	cf 93       	push	r28
     78e:	00 d0       	rcall	.+0      	; 0x790 <sig_signal+0x6>
     790:	cd b7       	in	r28, 0x3d	; 61
     792:	de b7       	in	r29, 0x3e	; 62
     794:	9a 83       	std	Y+2, r25	; 0x02
     796:	89 83       	std	Y+1, r24	; 0x01
    syscall( 9, (void *)sig );
     798:	29 81       	ldd	r18, Y+1	; 0x01
     79a:	3a 81       	ldd	r19, Y+2	; 0x02
     79c:	89 e0       	ldi	r24, 0x09	; 9
     79e:	b9 01       	movw	r22, r18
     7a0:	0e 94 35 02 	call	0x46a	; 0x46a <syscall>
}
     7a4:	0f 90       	pop	r0
     7a6:	0f 90       	pop	r0
     7a8:	cf 91       	pop	r28
     7aa:	df 91       	pop	r29
     7ac:	08 95       	ret

000007ae <scall_sig_broadcast>:
//---------------------------------------------------------------------------------------------
//10
void scall_sig_broadcast( void * arg )
{
     7ae:	df 93       	push	r29
     7b0:	cf 93       	push	r28
     7b2:	00 d0       	rcall	.+0      	; 0x7b4 <scall_sig_broadcast+0x6>
     7b4:	cd b7       	in	r28, 0x3d	; 61
     7b6:	de b7       	in	r29, 0x3e	; 62
     7b8:	9a 83       	std	Y+2, r25	; 0x02
     7ba:	89 83       	std	Y+1, r24	; 0x01
    sig_broadcast_isr( (sig_t *)arg );
     7bc:	89 81       	ldd	r24, Y+1	; 0x01
     7be:	9a 81       	ldd	r25, Y+2	; 0x02
     7c0:	0e 94 2c 10 	call	0x2058	; 0x2058 <sig_broadcast_isr>
}
     7c4:	0f 90       	pop	r0
     7c6:	0f 90       	pop	r0
     7c8:	cf 91       	pop	r28
     7ca:	df 91       	pop	r29
     7cc:	08 95       	ret

000007ce <sig_broadcast>:
void sig_broadcast( sig_t * sig )
{
     7ce:	df 93       	push	r29
     7d0:	cf 93       	push	r28
     7d2:	00 d0       	rcall	.+0      	; 0x7d4 <sig_broadcast+0x6>
     7d4:	cd b7       	in	r28, 0x3d	; 61
     7d6:	de b7       	in	r29, 0x3e	; 62
     7d8:	9a 83       	std	Y+2, r25	; 0x02
     7da:	89 83       	std	Y+1, r24	; 0x01
    syscall( 10, (void *)sig );
     7dc:	29 81       	ldd	r18, Y+1	; 0x01
     7de:	3a 81       	ldd	r19, Y+2	; 0x02
     7e0:	8a e0       	ldi	r24, 0x0A	; 10
     7e2:	b9 01       	movw	r22, r18
     7e4:	0e 94 35 02 	call	0x46a	; 0x46a <syscall>
}
     7e8:	0f 90       	pop	r0
     7ea:	0f 90       	pop	r0
     7ec:	cf 91       	pop	r28
     7ee:	df 91       	pop	r29
     7f0:	08 95       	ret

000007f2 <scall_sem_init>:
///=================================================================
///                         Семафоры
//11
void scall_sem_init( void * arg )
{
     7f2:	df 93       	push	r29
     7f4:	cf 93       	push	r28
     7f6:	00 d0       	rcall	.+0      	; 0x7f8 <scall_sem_init+0x6>
     7f8:	cd b7       	in	r28, 0x3d	; 61
     7fa:	de b7       	in	r29, 0x3e	; 62
     7fc:	9a 83       	std	Y+2, r25	; 0x02
     7fe:	89 83       	std	Y+1, r24	; 0x01
    sem_init_isr( ((sem_init_arg_t *)arg)->sem, ((sem_init_arg_t *)arg)->count );
     800:	e9 81       	ldd	r30, Y+1	; 0x01
     802:	fa 81       	ldd	r31, Y+2	; 0x02
     804:	80 81       	ld	r24, Z
     806:	91 81       	ldd	r25, Z+1	; 0x01
     808:	e9 81       	ldd	r30, Y+1	; 0x01
     80a:	fa 81       	ldd	r31, Y+2	; 0x02
     80c:	22 81       	ldd	r18, Z+2	; 0x02
     80e:	33 81       	ldd	r19, Z+3	; 0x03
     810:	b9 01       	movw	r22, r18
     812:	0e 94 45 0f 	call	0x1e8a	; 0x1e8a <sem_init_isr>
}
     816:	0f 90       	pop	r0
     818:	0f 90       	pop	r0
     81a:	cf 91       	pop	r28
     81c:	df 91       	pop	r29
     81e:	08 95       	ret

00000820 <scall_sem_lock>:
    syscall( 11, (void *)&scarg );
}
//----------------------------------------------------------------------
//12
void scall_sem_lock( void * arg )
{
     820:	0f 93       	push	r16
     822:	1f 93       	push	r17
     824:	df 93       	push	r29
     826:	cf 93       	push	r28
     828:	00 d0       	rcall	.+0      	; 0x82a <scall_sem_lock+0xa>
     82a:	cd b7       	in	r28, 0x3d	; 61
     82c:	de b7       	in	r29, 0x3e	; 62
     82e:	9a 83       	std	Y+2, r25	; 0x02
     830:	89 83       	std	Y+1, r24	; 0x01
    ((sem_lock_arg_t *)arg)->scall_ret = _sem_lock_stage_1( ((sem_lock_arg_t *)arg)->sem );
     832:	09 81       	ldd	r16, Y+1	; 0x01
     834:	1a 81       	ldd	r17, Y+2	; 0x02
     836:	e9 81       	ldd	r30, Y+1	; 0x01
     838:	fa 81       	ldd	r31, Y+2	; 0x02
     83a:	80 81       	ld	r24, Z
     83c:	91 81       	ldd	r25, Z+1	; 0x01
     83e:	0e 94 60 0f 	call	0x1ec0	; 0x1ec0 <_sem_lock_stage_1>
     842:	f8 01       	movw	r30, r16
     844:	82 83       	std	Z+2, r24	; 0x02
}
     846:	0f 90       	pop	r0
     848:	0f 90       	pop	r0
     84a:	cf 91       	pop	r28
     84c:	df 91       	pop	r29
     84e:	1f 91       	pop	r17
     850:	0f 91       	pop	r16
     852:	08 95       	ret

00000854 <scall_sem_unlock>:
    return scarg.scall_ret;
}
//----------------------------------------------------------------------
//13
void scall_sem_unlock( void * arg )
{
     854:	df 93       	push	r29
     856:	cf 93       	push	r28
     858:	00 d0       	rcall	.+0      	; 0x85a <scall_sem_unlock+0x6>
     85a:	cd b7       	in	r28, 0x3d	; 61
     85c:	de b7       	in	r29, 0x3e	; 62
     85e:	9a 83       	std	Y+2, r25	; 0x02
     860:	89 83       	std	Y+1, r24	; 0x01
    _sem_unlock( (sem_t *)arg );
     862:	89 81       	ldd	r24, Y+1	; 0x01
     864:	9a 81       	ldd	r25, Y+2	; 0x02
     866:	0e 94 9b 0f 	call	0x1f36	; 0x1f36 <_sem_unlock>
}
     86a:	0f 90       	pop	r0
     86c:	0f 90       	pop	r0
     86e:	cf 91       	pop	r28
     870:	df 91       	pop	r29
     872:	08 95       	ret

00000874 <scall_mutex_init>:
}
///=================================================================
///                         Мьютексы
//14
void scall_mutex_init(void * arg)
{
     874:	df 93       	push	r29
     876:	cf 93       	push	r28
     878:	00 d0       	rcall	.+0      	; 0x87a <scall_mutex_init+0x6>
     87a:	cd b7       	in	r28, 0x3d	; 61
     87c:	de b7       	in	r29, 0x3e	; 62
     87e:	9a 83       	std	Y+2, r25	; 0x02
     880:	89 83       	std	Y+1, r24	; 0x01
    mutex_init_isr(
     882:	e9 81       	ldd	r30, Y+1	; 0x01
     884:	fa 81       	ldd	r31, Y+2	; 0x02
     886:	80 81       	ld	r24, Z
     888:	91 81       	ldd	r25, Z+1	; 0x01
     88a:	e9 81       	ldd	r30, Y+1	; 0x01
     88c:	fa 81       	ldd	r31, Y+2	; 0x02
     88e:	22 81       	ldd	r18, Z+2	; 0x02
     890:	62 2f       	mov	r22, r18
     892:	0e 94 cb 09 	call	0x1396	; 0x1396 <mutex_init_isr>
               ((mutex_init_arg_t *)arg)->mutex
#ifdef CONFIG_USE_HIGHEST_LOCKER
               ,((mutex_init_arg_t *)arg)->prio
#endif // CONFIG_USE_HIGHEST_LOCKER
               );
}
     896:	0f 90       	pop	r0
     898:	0f 90       	pop	r0
     89a:	cf 91       	pop	r28
     89c:	df 91       	pop	r29
     89e:	08 95       	ret

000008a0 <scall_mutex_lock>:
    syscall( 14, (void *)&scarg );
}
//----------------------------------------------------------------------
//15
void scall_mutex_lock(void * arg)
{
     8a0:	0f 93       	push	r16
     8a2:	1f 93       	push	r17
     8a4:	df 93       	push	r29
     8a6:	cf 93       	push	r28
     8a8:	00 d0       	rcall	.+0      	; 0x8aa <scall_mutex_lock+0xa>
     8aa:	cd b7       	in	r28, 0x3d	; 61
     8ac:	de b7       	in	r29, 0x3e	; 62
     8ae:	9a 83       	std	Y+2, r25	; 0x02
     8b0:	89 83       	std	Y+1, r24	; 0x01
    ((mutex_lock_arg_t *)arg)->scall_ret = _mutex_lock( ((mutex_lock_arg_t *)arg)->mutex );
     8b2:	09 81       	ldd	r16, Y+1	; 0x01
     8b4:	1a 81       	ldd	r17, Y+2	; 0x02
     8b6:	e9 81       	ldd	r30, Y+1	; 0x01
     8b8:	fa 81       	ldd	r31, Y+2	; 0x02
     8ba:	80 81       	ld	r24, Z
     8bc:	91 81       	ldd	r25, Z+1	; 0x01
     8be:	0e 94 e6 09 	call	0x13cc	; 0x13cc <_mutex_lock>
     8c2:	f8 01       	movw	r30, r16
     8c4:	82 83       	std	Z+2, r24	; 0x02
}
     8c6:	0f 90       	pop	r0
     8c8:	0f 90       	pop	r0
     8ca:	cf 91       	pop	r28
     8cc:	df 91       	pop	r29
     8ce:	1f 91       	pop	r17
     8d0:	0f 91       	pop	r16
     8d2:	08 95       	ret

000008d4 <scall_mutex_try_lock>:
}
// Захват
//----------------------------------------------------------------------
//16
void scall_mutex_try_lock(void * arg)
{
     8d4:	0f 93       	push	r16
     8d6:	1f 93       	push	r17
     8d8:	df 93       	push	r29
     8da:	cf 93       	push	r28
     8dc:	00 d0       	rcall	.+0      	; 0x8de <scall_mutex_try_lock+0xa>
     8de:	cd b7       	in	r28, 0x3d	; 61
     8e0:	de b7       	in	r29, 0x3e	; 62
     8e2:	9a 83       	std	Y+2, r25	; 0x02
     8e4:	89 83       	std	Y+1, r24	; 0x01
    ((mutex_lock_arg_t *)arg)->scall_ret = _mutex_try_lock( ((mutex_lock_arg_t *)arg)->mutex );
     8e6:	09 81       	ldd	r16, Y+1	; 0x01
     8e8:	1a 81       	ldd	r17, Y+2	; 0x02
     8ea:	e9 81       	ldd	r30, Y+1	; 0x01
     8ec:	fa 81       	ldd	r31, Y+2	; 0x02
     8ee:	80 81       	ld	r24, Z
     8f0:	91 81       	ldd	r25, Z+1	; 0x01
     8f2:	0e 94 2e 0a 	call	0x145c	; 0x145c <_mutex_try_lock>
     8f6:	f8 01       	movw	r30, r16
     8f8:	82 83       	std	Z+2, r24	; 0x02
}
     8fa:	0f 90       	pop	r0
     8fc:	0f 90       	pop	r0
     8fe:	cf 91       	pop	r28
     900:	df 91       	pop	r29
     902:	1f 91       	pop	r17
     904:	0f 91       	pop	r16
     906:	08 95       	ret

00000908 <scall_mutex_unlock>:
    return scarg.scall_ret;
}
//----------------------------------------------------------------------
//17
void scall_mutex_unlock(void * arg)
{
     908:	df 93       	push	r29
     90a:	cf 93       	push	r28
     90c:	00 d0       	rcall	.+0      	; 0x90e <scall_mutex_unlock+0x6>
     90e:	cd b7       	in	r28, 0x3d	; 61
     910:	de b7       	in	r29, 0x3e	; 62
     912:	9a 83       	std	Y+2, r25	; 0x02
     914:	89 83       	std	Y+1, r24	; 0x01
    _mutex_unlock( (mutex_t *)arg );
     916:	89 81       	ldd	r24, Y+1	; 0x01
     918:	9a 81       	ldd	r25, Y+2	; 0x02
     91a:	0e 94 5a 0a 	call	0x14b4	; 0x14b4 <_mutex_unlock>
}
     91e:	0f 90       	pop	r0
     920:	0f 90       	pop	r0
     922:	cf 91       	pop	r28
     924:	df 91       	pop	r29
     926:	08 95       	ret

00000928 <osbme_init_stack>:
*                                                                                        *
*****************************************************************************************/
#include <avr/io.h>
#include "../../osbme.h"
void * osbme_init_stack( void * top_of_stack, osbme_code_t code, void * arg )
{
     928:	df 93       	push	r29
     92a:	cf 93       	push	r28
     92c:	cd b7       	in	r28, 0x3d	; 61
     92e:	de b7       	in	r29, 0x3e	; 62
     930:	2a 97       	sbiw	r28, 0x0a	; 10
     932:	0f b6       	in	r0, 0x3f	; 63
     934:	f8 94       	cli
     936:	de bf       	out	0x3e, r29	; 62
     938:	0f be       	out	0x3f, r0	; 63
     93a:	cd bf       	out	0x3d, r28	; 61
     93c:	9e 83       	std	Y+6, r25	; 0x06
     93e:	8d 83       	std	Y+5, r24	; 0x05
     940:	78 87       	std	Y+8, r23	; 0x08
     942:	6f 83       	std	Y+7, r22	; 0x07
     944:	5a 87       	std	Y+10, r21	; 0x0a
     946:	49 87       	std	Y+9, r20	; 0x09
    char * tos = (char *)top_of_stack;
     948:	8d 81       	ldd	r24, Y+5	; 0x05
     94a:	9e 81       	ldd	r25, Y+6	; 0x06
     94c:	9c 83       	std	Y+4, r25	; 0x04
     94e:	8b 83       	std	Y+3, r24	; 0x03
    //*tos-- = 0x11;
    //*tos-- = 0x22;
    //*tos-- = 0x33;

    // return address
    unsigned short tmp = (unsigned short)code;
     950:	8f 81       	ldd	r24, Y+7	; 0x07
     952:	98 85       	ldd	r25, Y+8	; 0x08
     954:	9a 83       	std	Y+2, r25	; 0x02
     956:	89 83       	std	Y+1, r24	; 0x01
    *tos-- = (char)(tmp&(unsigned short)0x00ff);
     958:	89 81       	ldd	r24, Y+1	; 0x01
     95a:	eb 81       	ldd	r30, Y+3	; 0x03
     95c:	fc 81       	ldd	r31, Y+4	; 0x04
     95e:	80 83       	st	Z, r24
     960:	8b 81       	ldd	r24, Y+3	; 0x03
     962:	9c 81       	ldd	r25, Y+4	; 0x04
     964:	01 97       	sbiw	r24, 0x01	; 1
     966:	9c 83       	std	Y+4, r25	; 0x04
     968:	8b 83       	std	Y+3, r24	; 0x03
    tmp>>=8;
     96a:	89 81       	ldd	r24, Y+1	; 0x01
     96c:	9a 81       	ldd	r25, Y+2	; 0x02
     96e:	89 2f       	mov	r24, r25
     970:	99 27       	eor	r25, r25
     972:	9a 83       	std	Y+2, r25	; 0x02
     974:	89 83       	std	Y+1, r24	; 0x01
    *tos-- = (char)(tmp&(unsigned short)0x00ff);
     976:	89 81       	ldd	r24, Y+1	; 0x01
     978:	eb 81       	ldd	r30, Y+3	; 0x03
     97a:	fc 81       	ldd	r31, Y+4	; 0x04
     97c:	80 83       	st	Z, r24
     97e:	8b 81       	ldd	r24, Y+3	; 0x03
     980:	9c 81       	ldd	r25, Y+4	; 0x04
     982:	01 97       	sbiw	r24, 0x01	; 1
     984:	9c 83       	std	Y+4, r25	; 0x04
     986:	8b 83       	std	Y+3, r24	; 0x03

    // s
    *tos-- = 0x00;
     988:	eb 81       	ldd	r30, Y+3	; 0x03
     98a:	fc 81       	ldd	r31, Y+4	; 0x04
     98c:	10 82       	st	Z, r1
     98e:	8b 81       	ldd	r24, Y+3	; 0x03
     990:	9c 81       	ldd	r25, Y+4	; 0x04
     992:	01 97       	sbiw	r24, 0x01	; 1
     994:	9c 83       	std	Y+4, r25	; 0x04
     996:	8b 83       	std	Y+3, r24	; 0x03
    *tos-- = 0x00;// r1 must B 0
     998:	eb 81       	ldd	r30, Y+3	; 0x03
     99a:	fc 81       	ldd	r31, Y+4	; 0x04
     99c:	10 82       	st	Z, r1
     99e:	8b 81       	ldd	r24, Y+3	; 0x03
     9a0:	9c 81       	ldd	r25, Y+4	; 0x04
     9a2:	01 97       	sbiw	r24, 0x01	; 1
     9a4:	9c 83       	std	Y+4, r25	; 0x04
     9a6:	8b 83       	std	Y+3, r24	; 0x03
    *tos-- = 0x02;// r2
     9a8:	eb 81       	ldd	r30, Y+3	; 0x03
     9aa:	fc 81       	ldd	r31, Y+4	; 0x04
     9ac:	82 e0       	ldi	r24, 0x02	; 2
     9ae:	80 83       	st	Z, r24
     9b0:	8b 81       	ldd	r24, Y+3	; 0x03
     9b2:	9c 81       	ldd	r25, Y+4	; 0x04
     9b4:	01 97       	sbiw	r24, 0x01	; 1
     9b6:	9c 83       	std	Y+4, r25	; 0x04
     9b8:	8b 83       	std	Y+3, r24	; 0x03
    *tos-- = 0x80;// SREG: enable interrupts
     9ba:	eb 81       	ldd	r30, Y+3	; 0x03
     9bc:	fc 81       	ldd	r31, Y+4	; 0x04
     9be:	80 e8       	ldi	r24, 0x80	; 128
     9c0:	80 83       	st	Z, r24
     9c2:	8b 81       	ldd	r24, Y+3	; 0x03
     9c4:	9c 81       	ldd	r25, Y+4	; 0x04
     9c6:	01 97       	sbiw	r24, 0x01	; 1
     9c8:	9c 83       	std	Y+4, r25	; 0x04
     9ca:	8b 83       	std	Y+3, r24	; 0x03
    *tos-- = 0x03;
     9cc:	eb 81       	ldd	r30, Y+3	; 0x03
     9ce:	fc 81       	ldd	r31, Y+4	; 0x04
     9d0:	83 e0       	ldi	r24, 0x03	; 3
     9d2:	80 83       	st	Z, r24
     9d4:	8b 81       	ldd	r24, Y+3	; 0x03
     9d6:	9c 81       	ldd	r25, Y+4	; 0x04
     9d8:	01 97       	sbiw	r24, 0x01	; 1
     9da:	9c 83       	std	Y+4, r25	; 0x04
     9dc:	8b 83       	std	Y+3, r24	; 0x03
    *tos-- = 0x04;
     9de:	eb 81       	ldd	r30, Y+3	; 0x03
     9e0:	fc 81       	ldd	r31, Y+4	; 0x04
     9e2:	84 e0       	ldi	r24, 0x04	; 4
     9e4:	80 83       	st	Z, r24
     9e6:	8b 81       	ldd	r24, Y+3	; 0x03
     9e8:	9c 81       	ldd	r25, Y+4	; 0x04
     9ea:	01 97       	sbiw	r24, 0x01	; 1
     9ec:	9c 83       	std	Y+4, r25	; 0x04
     9ee:	8b 83       	std	Y+3, r24	; 0x03
    *tos-- = 0x05;
     9f0:	eb 81       	ldd	r30, Y+3	; 0x03
     9f2:	fc 81       	ldd	r31, Y+4	; 0x04
     9f4:	85 e0       	ldi	r24, 0x05	; 5
     9f6:	80 83       	st	Z, r24
     9f8:	8b 81       	ldd	r24, Y+3	; 0x03
     9fa:	9c 81       	ldd	r25, Y+4	; 0x04
     9fc:	01 97       	sbiw	r24, 0x01	; 1
     9fe:	9c 83       	std	Y+4, r25	; 0x04
     a00:	8b 83       	std	Y+3, r24	; 0x03
    *tos-- = 0x06;
     a02:	eb 81       	ldd	r30, Y+3	; 0x03
     a04:	fc 81       	ldd	r31, Y+4	; 0x04
     a06:	86 e0       	ldi	r24, 0x06	; 6
     a08:	80 83       	st	Z, r24
     a0a:	8b 81       	ldd	r24, Y+3	; 0x03
     a0c:	9c 81       	ldd	r25, Y+4	; 0x04
     a0e:	01 97       	sbiw	r24, 0x01	; 1
     a10:	9c 83       	std	Y+4, r25	; 0x04
     a12:	8b 83       	std	Y+3, r24	; 0x03
    *tos-- = 0x07;
     a14:	eb 81       	ldd	r30, Y+3	; 0x03
     a16:	fc 81       	ldd	r31, Y+4	; 0x04
     a18:	87 e0       	ldi	r24, 0x07	; 7
     a1a:	80 83       	st	Z, r24
     a1c:	8b 81       	ldd	r24, Y+3	; 0x03
     a1e:	9c 81       	ldd	r25, Y+4	; 0x04
     a20:	01 97       	sbiw	r24, 0x01	; 1
     a22:	9c 83       	std	Y+4, r25	; 0x04
     a24:	8b 83       	std	Y+3, r24	; 0x03
    *tos-- = 0x08;
     a26:	eb 81       	ldd	r30, Y+3	; 0x03
     a28:	fc 81       	ldd	r31, Y+4	; 0x04
     a2a:	88 e0       	ldi	r24, 0x08	; 8
     a2c:	80 83       	st	Z, r24
     a2e:	8b 81       	ldd	r24, Y+3	; 0x03
     a30:	9c 81       	ldd	r25, Y+4	; 0x04
     a32:	01 97       	sbiw	r24, 0x01	; 1
     a34:	9c 83       	std	Y+4, r25	; 0x04
     a36:	8b 83       	std	Y+3, r24	; 0x03
    *tos-- = 0x09;
     a38:	eb 81       	ldd	r30, Y+3	; 0x03
     a3a:	fc 81       	ldd	r31, Y+4	; 0x04
     a3c:	89 e0       	ldi	r24, 0x09	; 9
     a3e:	80 83       	st	Z, r24
     a40:	8b 81       	ldd	r24, Y+3	; 0x03
     a42:	9c 81       	ldd	r25, Y+4	; 0x04
     a44:	01 97       	sbiw	r24, 0x01	; 1
     a46:	9c 83       	std	Y+4, r25	; 0x04
     a48:	8b 83       	std	Y+3, r24	; 0x03
    *tos-- = 0x10;
     a4a:	eb 81       	ldd	r30, Y+3	; 0x03
     a4c:	fc 81       	ldd	r31, Y+4	; 0x04
     a4e:	80 e1       	ldi	r24, 0x10	; 16
     a50:	80 83       	st	Z, r24
     a52:	8b 81       	ldd	r24, Y+3	; 0x03
     a54:	9c 81       	ldd	r25, Y+4	; 0x04
     a56:	01 97       	sbiw	r24, 0x01	; 1
     a58:	9c 83       	std	Y+4, r25	; 0x04
     a5a:	8b 83       	std	Y+3, r24	; 0x03
    *tos-- = 0x11;
     a5c:	eb 81       	ldd	r30, Y+3	; 0x03
     a5e:	fc 81       	ldd	r31, Y+4	; 0x04
     a60:	81 e1       	ldi	r24, 0x11	; 17
     a62:	80 83       	st	Z, r24
     a64:	8b 81       	ldd	r24, Y+3	; 0x03
     a66:	9c 81       	ldd	r25, Y+4	; 0x04
     a68:	01 97       	sbiw	r24, 0x01	; 1
     a6a:	9c 83       	std	Y+4, r25	; 0x04
     a6c:	8b 83       	std	Y+3, r24	; 0x03
    *tos-- = 0x12;
     a6e:	eb 81       	ldd	r30, Y+3	; 0x03
     a70:	fc 81       	ldd	r31, Y+4	; 0x04
     a72:	82 e1       	ldi	r24, 0x12	; 18
     a74:	80 83       	st	Z, r24
     a76:	8b 81       	ldd	r24, Y+3	; 0x03
     a78:	9c 81       	ldd	r25, Y+4	; 0x04
     a7a:	01 97       	sbiw	r24, 0x01	; 1
     a7c:	9c 83       	std	Y+4, r25	; 0x04
     a7e:	8b 83       	std	Y+3, r24	; 0x03
    *tos-- = 0x13;
     a80:	eb 81       	ldd	r30, Y+3	; 0x03
     a82:	fc 81       	ldd	r31, Y+4	; 0x04
     a84:	83 e1       	ldi	r24, 0x13	; 19
     a86:	80 83       	st	Z, r24
     a88:	8b 81       	ldd	r24, Y+3	; 0x03
     a8a:	9c 81       	ldd	r25, Y+4	; 0x04
     a8c:	01 97       	sbiw	r24, 0x01	; 1
     a8e:	9c 83       	std	Y+4, r25	; 0x04
     a90:	8b 83       	std	Y+3, r24	; 0x03
    *tos-- = 0x14;
     a92:	eb 81       	ldd	r30, Y+3	; 0x03
     a94:	fc 81       	ldd	r31, Y+4	; 0x04
     a96:	84 e1       	ldi	r24, 0x14	; 20
     a98:	80 83       	st	Z, r24
     a9a:	8b 81       	ldd	r24, Y+3	; 0x03
     a9c:	9c 81       	ldd	r25, Y+4	; 0x04
     a9e:	01 97       	sbiw	r24, 0x01	; 1
     aa0:	9c 83       	std	Y+4, r25	; 0x04
     aa2:	8b 83       	std	Y+3, r24	; 0x03
    *tos-- = 0x15;
     aa4:	eb 81       	ldd	r30, Y+3	; 0x03
     aa6:	fc 81       	ldd	r31, Y+4	; 0x04
     aa8:	85 e1       	ldi	r24, 0x15	; 21
     aaa:	80 83       	st	Z, r24
     aac:	8b 81       	ldd	r24, Y+3	; 0x03
     aae:	9c 81       	ldd	r25, Y+4	; 0x04
     ab0:	01 97       	sbiw	r24, 0x01	; 1
     ab2:	9c 83       	std	Y+4, r25	; 0x04
     ab4:	8b 83       	std	Y+3, r24	; 0x03
    *tos-- = 0x16;
     ab6:	eb 81       	ldd	r30, Y+3	; 0x03
     ab8:	fc 81       	ldd	r31, Y+4	; 0x04
     aba:	86 e1       	ldi	r24, 0x16	; 22
     abc:	80 83       	st	Z, r24
     abe:	8b 81       	ldd	r24, Y+3	; 0x03
     ac0:	9c 81       	ldd	r25, Y+4	; 0x04
     ac2:	01 97       	sbiw	r24, 0x01	; 1
     ac4:	9c 83       	std	Y+4, r25	; 0x04
     ac6:	8b 83       	std	Y+3, r24	; 0x03
    *tos-- = 0x17;
     ac8:	eb 81       	ldd	r30, Y+3	; 0x03
     aca:	fc 81       	ldd	r31, Y+4	; 0x04
     acc:	87 e1       	ldi	r24, 0x17	; 23
     ace:	80 83       	st	Z, r24
     ad0:	8b 81       	ldd	r24, Y+3	; 0x03
     ad2:	9c 81       	ldd	r25, Y+4	; 0x04
     ad4:	01 97       	sbiw	r24, 0x01	; 1
     ad6:	9c 83       	std	Y+4, r25	; 0x04
     ad8:	8b 83       	std	Y+3, r24	; 0x03
    *tos-- = 0x18;
     ada:	eb 81       	ldd	r30, Y+3	; 0x03
     adc:	fc 81       	ldd	r31, Y+4	; 0x04
     ade:	88 e1       	ldi	r24, 0x18	; 24
     ae0:	80 83       	st	Z, r24
     ae2:	8b 81       	ldd	r24, Y+3	; 0x03
     ae4:	9c 81       	ldd	r25, Y+4	; 0x04
     ae6:	01 97       	sbiw	r24, 0x01	; 1
     ae8:	9c 83       	std	Y+4, r25	; 0x04
     aea:	8b 83       	std	Y+3, r24	; 0x03
    *tos-- = 0x19;
     aec:	eb 81       	ldd	r30, Y+3	; 0x03
     aee:	fc 81       	ldd	r31, Y+4	; 0x04
     af0:	89 e1       	ldi	r24, 0x19	; 25
     af2:	80 83       	st	Z, r24
     af4:	8b 81       	ldd	r24, Y+3	; 0x03
     af6:	9c 81       	ldd	r25, Y+4	; 0x04
     af8:	01 97       	sbiw	r24, 0x01	; 1
     afa:	9c 83       	std	Y+4, r25	; 0x04
     afc:	8b 83       	std	Y+3, r24	; 0x03
    *tos-- = 0x20;
     afe:	eb 81       	ldd	r30, Y+3	; 0x03
     b00:	fc 81       	ldd	r31, Y+4	; 0x04
     b02:	80 e2       	ldi	r24, 0x20	; 32
     b04:	80 83       	st	Z, r24
     b06:	8b 81       	ldd	r24, Y+3	; 0x03
     b08:	9c 81       	ldd	r25, Y+4	; 0x04
     b0a:	01 97       	sbiw	r24, 0x01	; 1
     b0c:	9c 83       	std	Y+4, r25	; 0x04
     b0e:	8b 83       	std	Y+3, r24	; 0x03
    *tos-- = 0x21;
     b10:	eb 81       	ldd	r30, Y+3	; 0x03
     b12:	fc 81       	ldd	r31, Y+4	; 0x04
     b14:	81 e2       	ldi	r24, 0x21	; 33
     b16:	80 83       	st	Z, r24
     b18:	8b 81       	ldd	r24, Y+3	; 0x03
     b1a:	9c 81       	ldd	r25, Y+4	; 0x04
     b1c:	01 97       	sbiw	r24, 0x01	; 1
     b1e:	9c 83       	std	Y+4, r25	; 0x04
     b20:	8b 83       	std	Y+3, r24	; 0x03
    *tos-- = 0x22;
     b22:	eb 81       	ldd	r30, Y+3	; 0x03
     b24:	fc 81       	ldd	r31, Y+4	; 0x04
     b26:	82 e2       	ldi	r24, 0x22	; 34
     b28:	80 83       	st	Z, r24
     b2a:	8b 81       	ldd	r24, Y+3	; 0x03
     b2c:	9c 81       	ldd	r25, Y+4	; 0x04
     b2e:	01 97       	sbiw	r24, 0x01	; 1
     b30:	9c 83       	std	Y+4, r25	; 0x04
     b32:	8b 83       	std	Y+3, r24	; 0x03
    *tos-- = 0x23;
     b34:	eb 81       	ldd	r30, Y+3	; 0x03
     b36:	fc 81       	ldd	r31, Y+4	; 0x04
     b38:	83 e2       	ldi	r24, 0x23	; 35
     b3a:	80 83       	st	Z, r24
     b3c:	8b 81       	ldd	r24, Y+3	; 0x03
     b3e:	9c 81       	ldd	r25, Y+4	; 0x04
     b40:	01 97       	sbiw	r24, 0x01	; 1
     b42:	9c 83       	std	Y+4, r25	; 0x04
     b44:	8b 83       	std	Y+3, r24	; 0x03

    tmp = (unsigned short)arg;
     b46:	89 85       	ldd	r24, Y+9	; 0x09
     b48:	9a 85       	ldd	r25, Y+10	; 0x0a
     b4a:	9a 83       	std	Y+2, r25	; 0x02
     b4c:	89 83       	std	Y+1, r24	; 0x01
    *tos-- = (char)(tmp&(unsigned short)0x00ff); // r24 LSByte of arg
     b4e:	89 81       	ldd	r24, Y+1	; 0x01
     b50:	eb 81       	ldd	r30, Y+3	; 0x03
     b52:	fc 81       	ldd	r31, Y+4	; 0x04
     b54:	80 83       	st	Z, r24
     b56:	8b 81       	ldd	r24, Y+3	; 0x03
     b58:	9c 81       	ldd	r25, Y+4	; 0x04
     b5a:	01 97       	sbiw	r24, 0x01	; 1
     b5c:	9c 83       	std	Y+4, r25	; 0x04
     b5e:	8b 83       	std	Y+3, r24	; 0x03
    tmp>>=8;
     b60:	89 81       	ldd	r24, Y+1	; 0x01
     b62:	9a 81       	ldd	r25, Y+2	; 0x02
     b64:	89 2f       	mov	r24, r25
     b66:	99 27       	eor	r25, r25
     b68:	9a 83       	std	Y+2, r25	; 0x02
     b6a:	89 83       	std	Y+1, r24	; 0x01
    *tos-- = (char)(tmp&(unsigned short)0x00ff); // r25 MSByte of arg
     b6c:	89 81       	ldd	r24, Y+1	; 0x01
     b6e:	eb 81       	ldd	r30, Y+3	; 0x03
     b70:	fc 81       	ldd	r31, Y+4	; 0x04
     b72:	80 83       	st	Z, r24
     b74:	8b 81       	ldd	r24, Y+3	; 0x03
     b76:	9c 81       	ldd	r25, Y+4	; 0x04
     b78:	01 97       	sbiw	r24, 0x01	; 1
     b7a:	9c 83       	std	Y+4, r25	; 0x04
     b7c:	8b 83       	std	Y+3, r24	; 0x03

    *tos-- = 0x26;
     b7e:	eb 81       	ldd	r30, Y+3	; 0x03
     b80:	fc 81       	ldd	r31, Y+4	; 0x04
     b82:	86 e2       	ldi	r24, 0x26	; 38
     b84:	80 83       	st	Z, r24
     b86:	8b 81       	ldd	r24, Y+3	; 0x03
     b88:	9c 81       	ldd	r25, Y+4	; 0x04
     b8a:	01 97       	sbiw	r24, 0x01	; 1
     b8c:	9c 83       	std	Y+4, r25	; 0x04
     b8e:	8b 83       	std	Y+3, r24	; 0x03
    *tos-- = 0x27;
     b90:	eb 81       	ldd	r30, Y+3	; 0x03
     b92:	fc 81       	ldd	r31, Y+4	; 0x04
     b94:	87 e2       	ldi	r24, 0x27	; 39
     b96:	80 83       	st	Z, r24
     b98:	8b 81       	ldd	r24, Y+3	; 0x03
     b9a:	9c 81       	ldd	r25, Y+4	; 0x04
     b9c:	01 97       	sbiw	r24, 0x01	; 1
     b9e:	9c 83       	std	Y+4, r25	; 0x04
     ba0:	8b 83       	std	Y+3, r24	; 0x03
    *tos-- = 0x28;
     ba2:	eb 81       	ldd	r30, Y+3	; 0x03
     ba4:	fc 81       	ldd	r31, Y+4	; 0x04
     ba6:	88 e2       	ldi	r24, 0x28	; 40
     ba8:	80 83       	st	Z, r24
     baa:	8b 81       	ldd	r24, Y+3	; 0x03
     bac:	9c 81       	ldd	r25, Y+4	; 0x04
     bae:	01 97       	sbiw	r24, 0x01	; 1
     bb0:	9c 83       	std	Y+4, r25	; 0x04
     bb2:	8b 83       	std	Y+3, r24	; 0x03
    *tos-- = 0x29;
     bb4:	eb 81       	ldd	r30, Y+3	; 0x03
     bb6:	fc 81       	ldd	r31, Y+4	; 0x04
     bb8:	89 e2       	ldi	r24, 0x29	; 41
     bba:	80 83       	st	Z, r24
     bbc:	8b 81       	ldd	r24, Y+3	; 0x03
     bbe:	9c 81       	ldd	r25, Y+4	; 0x04
     bc0:	01 97       	sbiw	r24, 0x01	; 1
     bc2:	9c 83       	std	Y+4, r25	; 0x04
     bc4:	8b 83       	std	Y+3, r24	; 0x03
    *tos-- = 0x30;
     bc6:	eb 81       	ldd	r30, Y+3	; 0x03
     bc8:	fc 81       	ldd	r31, Y+4	; 0x04
     bca:	80 e3       	ldi	r24, 0x30	; 48
     bcc:	80 83       	st	Z, r24
     bce:	8b 81       	ldd	r24, Y+3	; 0x03
     bd0:	9c 81       	ldd	r25, Y+4	; 0x04
     bd2:	01 97       	sbiw	r24, 0x01	; 1
     bd4:	9c 83       	std	Y+4, r25	; 0x04
     bd6:	8b 83       	std	Y+3, r24	; 0x03
    *tos-- = 0x31;
     bd8:	eb 81       	ldd	r30, Y+3	; 0x03
     bda:	fc 81       	ldd	r31, Y+4	; 0x04
     bdc:	81 e3       	ldi	r24, 0x31	; 49
     bde:	80 83       	st	Z, r24
     be0:	8b 81       	ldd	r24, Y+3	; 0x03
     be2:	9c 81       	ldd	r25, Y+4	; 0x04
     be4:	01 97       	sbiw	r24, 0x01	; 1
     be6:	9c 83       	std	Y+4, r25	; 0x04
     be8:	8b 83       	std	Y+3, r24	; 0x03
#ifdef RAMPZ
    *tos-- = 0xff;
#endif
    return((void *)tos);
     bea:	8b 81       	ldd	r24, Y+3	; 0x03
     bec:	9c 81       	ldd	r25, Y+4	; 0x04
}
     bee:	2a 96       	adiw	r28, 0x0a	; 10
     bf0:	0f b6       	in	r0, 0x3f	; 63
     bf2:	f8 94       	cli
     bf4:	de bf       	out	0x3e, r29	; 62
     bf6:	0f be       	out	0x3f, r0	; 63
     bf8:	cd bf       	out	0x3d, r28	; 61
     bfa:	cf 91       	pop	r28
     bfc:	df 91       	pop	r29
     bfe:	08 95       	ret

00000c00 <enter_crit_sec>:
    if( kernel.sched[core].nested_crit_sec == (count_t)0 )enable_interrupts();
}

#else
void enter_crit_sec(void)
{
     c00:	df 93       	push	r29
     c02:	cf 93       	push	r28
     c04:	cd b7       	in	r28, 0x3d	; 61
     c06:	de b7       	in	r29, 0x3e	; 62
    disable_interrupts();
     c08:	0e 94 bc 00 	call	0x178	; 0x178 <disable_interrupts>
    kernel.sched.nested_crit_sec++;
     c0c:	80 91 ca 01 	lds	r24, 0x01CA
     c10:	90 91 cb 01 	lds	r25, 0x01CB
     c14:	01 96       	adiw	r24, 0x01	; 1
     c16:	90 93 cb 01 	sts	0x01CB, r25
     c1a:	80 93 ca 01 	sts	0x01CA, r24
}
     c1e:	cf 91       	pop	r28
     c20:	df 91       	pop	r29
     c22:	08 95       	ret

00000c24 <exit_crit_sec>:
void exit_crit_sec(void)
{
     c24:	df 93       	push	r29
     c26:	cf 93       	push	r28
     c28:	cd b7       	in	r28, 0x3d	; 61
     c2a:	de b7       	in	r29, 0x3e	; 62
    if( kernel.sched.nested_crit_sec != (count_t)0 )kernel.sched.nested_crit_sec--;
     c2c:	80 91 ca 01 	lds	r24, 0x01CA
     c30:	90 91 cb 01 	lds	r25, 0x01CB
     c34:	00 97       	sbiw	r24, 0x00	; 0
     c36:	49 f0       	breq	.+18     	; 0xc4a <exit_crit_sec+0x26>
     c38:	80 91 ca 01 	lds	r24, 0x01CA
     c3c:	90 91 cb 01 	lds	r25, 0x01CB
     c40:	01 97       	sbiw	r24, 0x01	; 1
     c42:	90 93 cb 01 	sts	0x01CB, r25
     c46:	80 93 ca 01 	sts	0x01CA, r24
    if( kernel.sched.nested_crit_sec == (count_t)0 )enable_interrupts();
     c4a:	80 91 ca 01 	lds	r24, 0x01CA
     c4e:	90 91 cb 01 	lds	r25, 0x01CB
     c52:	00 97       	sbiw	r24, 0x00	; 0
     c54:	11 f4       	brne	.+4      	; 0xc5a <exit_crit_sec+0x36>
     c56:	0e 94 c4 00 	call	0x188	; 0x188 <enable_interrupts>
}
     c5a:	cf 91       	pop	r28
     c5c:	df 91       	pop	r29
     c5e:	08 95       	ret

00000c60 <gitem_init>:
*                                                                                        *
*****************************************************************************************/
#include "../include/bugurt.h"
// Инициация
void gitem_init(gitem_t * gitem, prio_t prio)
{
     c60:	df 93       	push	r29
     c62:	cf 93       	push	r28
     c64:	00 d0       	rcall	.+0      	; 0xc66 <gitem_init+0x6>
     c66:	00 d0       	rcall	.+0      	; 0xc68 <gitem_init+0x8>
     c68:	0f 92       	push	r0
     c6a:	cd b7       	in	r28, 0x3d	; 61
     c6c:	de b7       	in	r29, 0x3e	; 62
     c6e:	9c 83       	std	Y+4, r25	; 0x04
     c70:	8b 83       	std	Y+3, r24	; 0x03
     c72:	6d 83       	std	Y+5, r22	; 0x05
    group_t * group = &gitem->grp;
     c74:	8b 81       	ldd	r24, Y+3	; 0x03
     c76:	9c 81       	ldd	r25, Y+4	; 0x04
     c78:	06 96       	adiw	r24, 0x06	; 6
     c7a:	9a 83       	std	Y+2, r25	; 0x02
     c7c:	89 83       	std	Y+1, r24	; 0x01
    item_init( (item_t *)gitem );
     c7e:	8b 81       	ldd	r24, Y+3	; 0x03
     c80:	9c 81       	ldd	r25, Y+4	; 0x04
     c82:	0e 94 16 09 	call	0x122c	; 0x122c <item_init>
    group_init( group, prio );
     c86:	89 81       	ldd	r24, Y+1	; 0x01
     c88:	9a 81       	ldd	r25, Y+2	; 0x02
     c8a:	6d 81       	ldd	r22, Y+5	; 0x05
     c8c:	0e 94 86 08 	call	0x110c	; 0x110c <group_init>
    gitem->group = group;
     c90:	eb 81       	ldd	r30, Y+3	; 0x03
     c92:	fc 81       	ldd	r31, Y+4	; 0x04
     c94:	89 81       	ldd	r24, Y+1	; 0x01
     c96:	9a 81       	ldd	r25, Y+2	; 0x02
     c98:	95 83       	std	Z+5, r25	; 0x05
     c9a:	84 83       	std	Z+4, r24	; 0x04
}
     c9c:	0f 90       	pop	r0
     c9e:	0f 90       	pop	r0
     ca0:	0f 90       	pop	r0
     ca2:	0f 90       	pop	r0
     ca4:	0f 90       	pop	r0
     ca6:	cf 91       	pop	r28
     ca8:	df 91       	pop	r29
     caa:	08 95       	ret

00000cac <gitem_insert>:
// Вставить в список
void gitem_insert(gitem_t * gitem, xlist_t *xlist)
{
     cac:	df 93       	push	r29
     cae:	cf 93       	push	r28
     cb0:	cd b7       	in	r28, 0x3d	; 61
     cb2:	de b7       	in	r29, 0x3e	; 62
     cb4:	28 97       	sbiw	r28, 0x08	; 8
     cb6:	0f b6       	in	r0, 0x3f	; 63
     cb8:	f8 94       	cli
     cba:	de bf       	out	0x3e, r29	; 62
     cbc:	0f be       	out	0x3f, r0	; 63
     cbe:	cd bf       	out	0x3d, r28	; 61
     cc0:	9e 83       	std	Y+6, r25	; 0x06
     cc2:	8d 83       	std	Y+5, r24	; 0x05
     cc4:	78 87       	std	Y+8, r23	; 0x08
     cc6:	6f 83       	std	Y+7, r22	; 0x07
    prio_t prio = gitem->group->prio;
     cc8:	ed 81       	ldd	r30, Y+5	; 0x05
     cca:	fe 81       	ldd	r31, Y+6	; 0x06
     ccc:	04 80       	ldd	r0, Z+4	; 0x04
     cce:	f5 81       	ldd	r31, Z+5	; 0x05
     cd0:	e0 2d       	mov	r30, r0
     cd2:	82 81       	ldd	r24, Z+2	; 0x02
     cd4:	8c 83       	std	Y+4, r24	; 0x04
    index_t mask = ((index_t)1)<<prio;
     cd6:	8c 81       	ldd	r24, Y+4	; 0x04
     cd8:	28 2f       	mov	r18, r24
     cda:	30 e0       	ldi	r19, 0x00	; 0
     cdc:	81 e0       	ldi	r24, 0x01	; 1
     cde:	90 e0       	ldi	r25, 0x00	; 0
     ce0:	02 c0       	rjmp	.+4      	; 0xce6 <gitem_insert+0x3a>
     ce2:	88 0f       	add	r24, r24
     ce4:	99 1f       	adc	r25, r25
     ce6:	2a 95       	dec	r18
     ce8:	e2 f7       	brpl	.-8      	; 0xce2 <gitem_insert+0x36>
     cea:	8b 83       	std	Y+3, r24	; 0x03
    item_t ** head = (item_t **)xlist + prio;
     cec:	2f 81       	ldd	r18, Y+7	; 0x07
     cee:	38 85       	ldd	r19, Y+8	; 0x08
     cf0:	8c 81       	ldd	r24, Y+4	; 0x04
     cf2:	88 2f       	mov	r24, r24
     cf4:	90 e0       	ldi	r25, 0x00	; 0
     cf6:	88 0f       	add	r24, r24
     cf8:	99 1f       	adc	r25, r25
     cfa:	82 0f       	add	r24, r18
     cfc:	93 1f       	adc	r25, r19
     cfe:	9a 83       	std	Y+2, r25	; 0x02
     d00:	89 83       	std	Y+1, r24	; 0x01
    // Пуста ли часть списка с таким приоритетом
    if( ( xlist->index )& mask)
     d02:	ef 81       	ldd	r30, Y+7	; 0x07
     d04:	f8 85       	ldd	r31, Y+8	; 0x08
     d06:	90 89       	ldd	r25, Z+16	; 0x10
     d08:	8b 81       	ldd	r24, Y+3	; 0x03
     d0a:	89 23       	and	r24, r25
     d0c:	88 23       	and	r24, r24
     d0e:	51 f0       	breq	.+20     	; 0xd24 <gitem_insert+0x78>
    {
        //Не пуста вставляем туда gitem
        item_insert( (item_t *)gitem, *head );
     d10:	8d 81       	ldd	r24, Y+5	; 0x05
     d12:	9e 81       	ldd	r25, Y+6	; 0x06
     d14:	e9 81       	ldd	r30, Y+1	; 0x01
     d16:	fa 81       	ldd	r31, Y+2	; 0x02
     d18:	20 81       	ld	r18, Z
     d1a:	31 81       	ldd	r19, Z+1	; 0x01
     d1c:	b9 01       	movw	r22, r18
     d1e:	0e 94 2e 09 	call	0x125c	; 0x125c <item_insert>
     d22:	0e c0       	rjmp	.+28     	; 0xd40 <gitem_insert+0x94>
    }
    else
    {
        // Пуста, gitem будет головой
        *head = (item_t *)gitem;
     d24:	8d 81       	ldd	r24, Y+5	; 0x05
     d26:	9e 81       	ldd	r25, Y+6	; 0x06
     d28:	e9 81       	ldd	r30, Y+1	; 0x01
     d2a:	fa 81       	ldd	r31, Y+2	; 0x02
     d2c:	91 83       	std	Z+1, r25	; 0x01
     d2e:	80 83       	st	Z, r24
        xlist->index |= mask;
     d30:	ef 81       	ldd	r30, Y+7	; 0x07
     d32:	f8 85       	ldd	r31, Y+8	; 0x08
     d34:	90 89       	ldd	r25, Z+16	; 0x10
     d36:	8b 81       	ldd	r24, Y+3	; 0x03
     d38:	89 2b       	or	r24, r25
     d3a:	ef 81       	ldd	r30, Y+7	; 0x07
     d3c:	f8 85       	ldd	r31, Y+8	; 0x08
     d3e:	80 8b       	std	Z+16, r24	; 0x10
    }
    gitem->group->link = (void *)xlist;
     d40:	ed 81       	ldd	r30, Y+5	; 0x05
     d42:	fe 81       	ldd	r31, Y+6	; 0x06
     d44:	04 80       	ldd	r0, Z+4	; 0x04
     d46:	f5 81       	ldd	r31, Z+5	; 0x05
     d48:	e0 2d       	mov	r30, r0
     d4a:	8f 81       	ldd	r24, Y+7	; 0x07
     d4c:	98 85       	ldd	r25, Y+8	; 0x08
     d4e:	91 83       	std	Z+1, r25	; 0x01
     d50:	80 83       	st	Z, r24
}
     d52:	28 96       	adiw	r28, 0x08	; 8
     d54:	0f b6       	in	r0, 0x3f	; 63
     d56:	f8 94       	cli
     d58:	de bf       	out	0x3e, r29	; 62
     d5a:	0f be       	out	0x3f, r0	; 63
     d5c:	cd bf       	out	0x3d, r28	; 61
     d5e:	cf 91       	pop	r28
     d60:	df 91       	pop	r29
     d62:	08 95       	ret

00000d64 <gitem_insert_group>:
 при этом gitem->group переходит в Пул

 Ограничения на gitem - он не должен быть сгруппирован в момент встаки в группу.
*/
void gitem_insert_group(gitem_t * gitem, xlist_t *xlist)
{
     d64:	df 93       	push	r29
     d66:	cf 93       	push	r28
     d68:	cd b7       	in	r28, 0x3d	; 61
     d6a:	de b7       	in	r29, 0x3e	; 62
     d6c:	2a 97       	sbiw	r28, 0x0a	; 10
     d6e:	0f b6       	in	r0, 0x3f	; 63
     d70:	f8 94       	cli
     d72:	de bf       	out	0x3e, r29	; 62
     d74:	0f be       	out	0x3f, r0	; 63
     d76:	cd bf       	out	0x3d, r28	; 61
     d78:	98 87       	std	Y+8, r25	; 0x08
     d7a:	8f 83       	std	Y+7, r24	; 0x07
     d7c:	7a 87       	std	Y+10, r23	; 0x0a
     d7e:	69 87       	std	Y+9, r22	; 0x09
    prio_t prio = gitem->group->prio;
     d80:	ef 81       	ldd	r30, Y+7	; 0x07
     d82:	f8 85       	ldd	r31, Y+8	; 0x08
     d84:	04 80       	ldd	r0, Z+4	; 0x04
     d86:	f5 81       	ldd	r31, Z+5	; 0x05
     d88:	e0 2d       	mov	r30, r0
     d8a:	82 81       	ldd	r24, Z+2	; 0x02
     d8c:	8e 83       	std	Y+6, r24	; 0x06
    index_t mask = ((index_t)1)<<prio;
     d8e:	8e 81       	ldd	r24, Y+6	; 0x06
     d90:	28 2f       	mov	r18, r24
     d92:	30 e0       	ldi	r19, 0x00	; 0
     d94:	81 e0       	ldi	r24, 0x01	; 1
     d96:	90 e0       	ldi	r25, 0x00	; 0
     d98:	02 c0       	rjmp	.+4      	; 0xd9e <gitem_insert_group+0x3a>
     d9a:	88 0f       	add	r24, r24
     d9c:	99 1f       	adc	r25, r25
     d9e:	2a 95       	dec	r18
     da0:	e2 f7       	brpl	.-8      	; 0xd9a <gitem_insert_group+0x36>
     da2:	8d 83       	std	Y+5, r24	; 0x05
    item_t ** head = (item_t **)xlist + prio;
     da4:	29 85       	ldd	r18, Y+9	; 0x09
     da6:	3a 85       	ldd	r19, Y+10	; 0x0a
     da8:	8e 81       	ldd	r24, Y+6	; 0x06
     daa:	88 2f       	mov	r24, r24
     dac:	90 e0       	ldi	r25, 0x00	; 0
     dae:	88 0f       	add	r24, r24
     db0:	99 1f       	adc	r25, r25
     db2:	82 0f       	add	r24, r18
     db4:	93 1f       	adc	r25, r19
     db6:	9c 83       	std	Y+4, r25	; 0x04
     db8:	8b 83       	std	Y+3, r24	; 0x03
    group_t * group = gitem->group;
     dba:	ef 81       	ldd	r30, Y+7	; 0x07
     dbc:	f8 85       	ldd	r31, Y+8	; 0x08
     dbe:	84 81       	ldd	r24, Z+4	; 0x04
     dc0:	95 81       	ldd	r25, Z+5	; 0x05
     dc2:	9a 83       	std	Y+2, r25	; 0x02
     dc4:	89 83       	std	Y+1, r24	; 0x01
    // Пуста ли часть списка с таким приоритетом
    if( ( xlist->index )& mask)
     dc6:	e9 85       	ldd	r30, Y+9	; 0x09
     dc8:	fa 85       	ldd	r31, Y+10	; 0x0a
     dca:	90 89       	ldd	r25, Z+16	; 0x10
     dcc:	8d 81       	ldd	r24, Y+5	; 0x05
     dce:	89 23       	and	r24, r25
     dd0:	88 23       	and	r24, r24
     dd2:	31 f1       	breq	.+76     	; 0xe20 <gitem_insert_group+0xbc>
    {
        //Не пуста вставляем туда gitem
        item_insert((item_t *)gitem, *head );
     dd4:	8f 81       	ldd	r24, Y+7	; 0x07
     dd6:	98 85       	ldd	r25, Y+8	; 0x08
     dd8:	eb 81       	ldd	r30, Y+3	; 0x03
     dda:	fc 81       	ldd	r31, Y+4	; 0x04
     ddc:	20 81       	ld	r18, Z
     dde:	31 81       	ldd	r19, Z+1	; 0x01
     de0:	b9 01       	movw	r22, r18
     de2:	0e 94 2e 09 	call	0x125c	; 0x125c <item_insert>
        //Передаем старую группу в пул
        group_push(group);
     de6:	89 81       	ldd	r24, Y+1	; 0x01
     de8:	9a 81       	ldd	r25, Y+2	; 0x02
     dea:	0e 94 a3 08 	call	0x1146	; 0x1146 <group_push>
        //назначаем новую группу - ту, в которой голова
        group = ((gitem_t *)*head)->group;
     dee:	eb 81       	ldd	r30, Y+3	; 0x03
     df0:	fc 81       	ldd	r31, Y+4	; 0x04
     df2:	80 81       	ld	r24, Z
     df4:	91 81       	ldd	r25, Z+1	; 0x01
     df6:	fc 01       	movw	r30, r24
     df8:	84 81       	ldd	r24, Z+4	; 0x04
     dfa:	95 81       	ldd	r25, Z+5	; 0x05
     dfc:	9a 83       	std	Y+2, r25	; 0x02
     dfe:	89 83       	std	Y+1, r24	; 0x01
        gitem->group = group;
     e00:	ef 81       	ldd	r30, Y+7	; 0x07
     e02:	f8 85       	ldd	r31, Y+8	; 0x08
     e04:	89 81       	ldd	r24, Y+1	; 0x01
     e06:	9a 81       	ldd	r25, Y+2	; 0x02
     e08:	95 83       	std	Z+5, r25	; 0x05
     e0a:	84 83       	std	Z+4, r24	; 0x04
        //количество элементов в группе увеличилось на 1
        group->el_num++;
     e0c:	e9 81       	ldd	r30, Y+1	; 0x01
     e0e:	fa 81       	ldd	r31, Y+2	; 0x02
     e10:	83 81       	ldd	r24, Z+3	; 0x03
     e12:	94 81       	ldd	r25, Z+4	; 0x04
     e14:	01 96       	adiw	r24, 0x01	; 1
     e16:	e9 81       	ldd	r30, Y+1	; 0x01
     e18:	fa 81       	ldd	r31, Y+2	; 0x02
     e1a:	94 83       	std	Z+4, r25	; 0x04
     e1c:	83 83       	std	Z+3, r24	; 0x03
     e1e:	14 c0       	rjmp	.+40     	; 0xe48 <gitem_insert_group+0xe4>
    }
    else
    {
        // Пуста, gitem будет головой
        *head = (item_t *)gitem;
     e20:	8f 81       	ldd	r24, Y+7	; 0x07
     e22:	98 85       	ldd	r25, Y+8	; 0x08
     e24:	eb 81       	ldd	r30, Y+3	; 0x03
     e26:	fc 81       	ldd	r31, Y+4	; 0x04
     e28:	91 83       	std	Z+1, r25	; 0x01
     e2a:	80 83       	st	Z, r24
        xlist->index |= mask;
     e2c:	e9 85       	ldd	r30, Y+9	; 0x09
     e2e:	fa 85       	ldd	r31, Y+10	; 0x0a
     e30:	90 89       	ldd	r25, Z+16	; 0x10
     e32:	8d 81       	ldd	r24, Y+5	; 0x05
     e34:	89 2b       	or	r24, r25
     e36:	e9 85       	ldd	r30, Y+9	; 0x09
     e38:	fa 85       	ldd	r31, Y+10	; 0x0a
     e3a:	80 8b       	std	Z+16, r24	; 0x10
        group->link = (void *)xlist;
     e3c:	e9 81       	ldd	r30, Y+1	; 0x01
     e3e:	fa 81       	ldd	r31, Y+2	; 0x02
     e40:	89 85       	ldd	r24, Y+9	; 0x09
     e42:	9a 85       	ldd	r25, Y+10	; 0x0a
     e44:	91 83       	std	Z+1, r25	; 0x01
     e46:	80 83       	st	Z, r24
    }
}
     e48:	2a 96       	adiw	r28, 0x0a	; 10
     e4a:	0f b6       	in	r0, 0x3f	; 63
     e4c:	f8 94       	cli
     e4e:	de bf       	out	0x3e, r29	; 62
     e50:	0f be       	out	0x3f, r0	; 63
     e52:	cd bf       	out	0x3d, r28	; 61
     e54:	cf 91       	pop	r28
     e56:	df 91       	pop	r29
     e58:	08 95       	ret

00000e5a <gitem_fast_cut>:
// Быстро вырезать из списка (не обнуляется указатель gitem->group->link)
void gitem_fast_cut(gitem_t * gitem)
{
     e5a:	df 93       	push	r29
     e5c:	cf 93       	push	r28
     e5e:	00 d0       	rcall	.+0      	; 0xe60 <gitem_fast_cut+0x6>
     e60:	00 d0       	rcall	.+0      	; 0xe62 <gitem_fast_cut+0x8>
     e62:	0f 92       	push	r0
     e64:	cd b7       	in	r28, 0x3d	; 61
     e66:	de b7       	in	r29, 0x3e	; 62
     e68:	9d 83       	std	Y+5, r25	; 0x05
     e6a:	8c 83       	std	Y+4, r24	; 0x04
    prio_t prio = gitem->group->prio;
     e6c:	ec 81       	ldd	r30, Y+4	; 0x04
     e6e:	fd 81       	ldd	r31, Y+5	; 0x05
     e70:	04 80       	ldd	r0, Z+4	; 0x04
     e72:	f5 81       	ldd	r31, Z+5	; 0x05
     e74:	e0 2d       	mov	r30, r0
     e76:	82 81       	ldd	r24, Z+2	; 0x02
     e78:	8b 83       	std	Y+3, r24	; 0x03
    xlist_t * xlist = (xlist_t *)gitem->group->link;
     e7a:	ec 81       	ldd	r30, Y+4	; 0x04
     e7c:	fd 81       	ldd	r31, Y+5	; 0x05
     e7e:	04 80       	ldd	r0, Z+4	; 0x04
     e80:	f5 81       	ldd	r31, Z+5	; 0x05
     e82:	e0 2d       	mov	r30, r0
     e84:	80 81       	ld	r24, Z
     e86:	91 81       	ldd	r25, Z+1	; 0x01
     e88:	9a 83       	std	Y+2, r25	; 0x02
     e8a:	89 83       	std	Y+1, r24	; 0x01
    // Является ли эта часть списка группированной?
    if( gitem->group->el_num > (count_t)1 )
     e8c:	ec 81       	ldd	r30, Y+4	; 0x04
     e8e:	fd 81       	ldd	r31, Y+5	; 0x05
     e90:	04 80       	ldd	r0, Z+4	; 0x04
     e92:	f5 81       	ldd	r31, Z+5	; 0x05
     e94:	e0 2d       	mov	r30, r0
     e96:	83 81       	ldd	r24, Z+3	; 0x03
     e98:	94 81       	ldd	r25, Z+4	; 0x04
     e9a:	82 30       	cpi	r24, 0x02	; 2
     e9c:	91 05       	cpc	r25, r1
     e9e:	b8 f0       	brcs	.+46     	; 0xece <gitem_fast_cut+0x74>
    {
        //Группированная часть списка, будем вырезать из группы с выделением новой группы из Пула
        // В текущей группе стало на 1 элемент меньше
        gitem->group->el_num--;
     ea0:	ec 81       	ldd	r30, Y+4	; 0x04
     ea2:	fd 81       	ldd	r31, Y+5	; 0x05
     ea4:	04 80       	ldd	r0, Z+4	; 0x04
     ea6:	f5 81       	ldd	r31, Z+5	; 0x05
     ea8:	e0 2d       	mov	r30, r0
     eaa:	83 81       	ldd	r24, Z+3	; 0x03
     eac:	94 81       	ldd	r25, Z+4	; 0x04
     eae:	01 97       	sbiw	r24, 0x01	; 1
     eb0:	94 83       	std	Z+4, r25	; 0x04
     eb2:	83 83       	std	Z+3, r24	; 0x03
        //выделяем новую группу
        gitem->group = group_pop();
     eb4:	0e 94 bd 08 	call	0x117a	; 0x117a <group_pop>
     eb8:	ec 81       	ldd	r30, Y+4	; 0x04
     eba:	fd 81       	ldd	r31, Y+5	; 0x05
     ebc:	95 83       	std	Z+5, r25	; 0x05
     ebe:	84 83       	std	Z+4, r24	; 0x04
        // Правильный приоритет, количество элементов в группе, выделенной из пула должно быть равно 1
        gitem->group->prio = (prio_t)prio;
     ec0:	ec 81       	ldd	r30, Y+4	; 0x04
     ec2:	fd 81       	ldd	r31, Y+5	; 0x05
     ec4:	04 80       	ldd	r0, Z+4	; 0x04
     ec6:	f5 81       	ldd	r31, Z+5	; 0x05
     ec8:	e0 2d       	mov	r30, r0
     eca:	8b 81       	ldd	r24, Y+3	; 0x03
     ecc:	82 83       	std	Z+2, r24	; 0x02
    }
    //Является ли элемент единственным в своей части списка?
    if( ((item_t *)gitem)->next == (item_t *)gitem )
     ece:	ec 81       	ldd	r30, Y+4	; 0x04
     ed0:	fd 81       	ldd	r31, Y+5	; 0x05
     ed2:	20 81       	ld	r18, Z
     ed4:	31 81       	ldd	r19, Z+1	; 0x01
     ed6:	8c 81       	ldd	r24, Y+4	; 0x04
     ed8:	9d 81       	ldd	r25, Y+5	; 0x05
     eda:	28 17       	cp	r18, r24
     edc:	39 07       	cpc	r19, r25
     ede:	09 f5       	brne	.+66     	; 0xf22 <gitem_fast_cut+0xc8>
    {
        // Да, является!
        xlist->item[prio] = (item_t *)0;
     ee0:	8b 81       	ldd	r24, Y+3	; 0x03
     ee2:	88 2f       	mov	r24, r24
     ee4:	90 e0       	ldi	r25, 0x00	; 0
     ee6:	29 81       	ldd	r18, Y+1	; 0x01
     ee8:	3a 81       	ldd	r19, Y+2	; 0x02
     eea:	88 0f       	add	r24, r24
     eec:	99 1f       	adc	r25, r25
     eee:	f9 01       	movw	r30, r18
     ef0:	e8 0f       	add	r30, r24
     ef2:	f9 1f       	adc	r31, r25
     ef4:	11 82       	std	Z+1, r1	; 0x01
     ef6:	10 82       	st	Z, r1
        xlist->index &= ~(((index_t)1)<<prio);
     ef8:	e9 81       	ldd	r30, Y+1	; 0x01
     efa:	fa 81       	ldd	r31, Y+2	; 0x02
     efc:	80 89       	ldd	r24, Z+16	; 0x10
     efe:	48 2f       	mov	r20, r24
     f00:	8b 81       	ldd	r24, Y+3	; 0x03
     f02:	28 2f       	mov	r18, r24
     f04:	30 e0       	ldi	r19, 0x00	; 0
     f06:	81 e0       	ldi	r24, 0x01	; 1
     f08:	90 e0       	ldi	r25, 0x00	; 0
     f0a:	02 2e       	mov	r0, r18
     f0c:	02 c0       	rjmp	.+4      	; 0xf12 <gitem_fast_cut+0xb8>
     f0e:	88 0f       	add	r24, r24
     f10:	99 1f       	adc	r25, r25
     f12:	0a 94       	dec	r0
     f14:	e2 f7       	brpl	.-8      	; 0xf0e <gitem_fast_cut+0xb4>
     f16:	80 95       	com	r24
     f18:	84 23       	and	r24, r20
     f1a:	e9 81       	ldd	r30, Y+1	; 0x01
     f1c:	fa 81       	ldd	r31, Y+2	; 0x02
     f1e:	80 8b       	std	Z+16, r24	; 0x10
     f20:	1a c0       	rjmp	.+52     	; 0xf56 <gitem_fast_cut+0xfc>
    }
    else
    {
        // Нет, не является!
        // Является ли элемент головой своей части списка?
        if( xlist->item[(prio_t)prio] == (item_t *)gitem )
     f22:	8b 81       	ldd	r24, Y+3	; 0x03
     f24:	88 2f       	mov	r24, r24
     f26:	90 e0       	ldi	r25, 0x00	; 0
     f28:	29 81       	ldd	r18, Y+1	; 0x01
     f2a:	3a 81       	ldd	r19, Y+2	; 0x02
     f2c:	88 0f       	add	r24, r24
     f2e:	99 1f       	adc	r25, r25
     f30:	f9 01       	movw	r30, r18
     f32:	e8 0f       	add	r30, r24
     f34:	f9 1f       	adc	r31, r25
     f36:	20 81       	ld	r18, Z
     f38:	31 81       	ldd	r19, Z+1	; 0x01
     f3a:	8c 81       	ldd	r24, Y+4	; 0x04
     f3c:	9d 81       	ldd	r25, Y+5	; 0x05
     f3e:	28 17       	cp	r18, r24
     f40:	39 07       	cpc	r19, r25
     f42:	29 f4       	brne	.+10     	; 0xf4e <gitem_fast_cut+0xf4>
        {
            // Является, список надо переключить
            xlist_switch( xlist, prio );
     f44:	89 81       	ldd	r24, Y+1	; 0x01
     f46:	9a 81       	ldd	r25, Y+2	; 0x02
     f48:	6b 81       	ldd	r22, Y+3	; 0x03
     f4a:	0e 94 fa 10 	call	0x21f4	; 0x21f4 <xlist_switch>
        }
        // Собственно - вырезаем элемент
        item_cut( (item_t *)gitem );
     f4e:	8c 81       	ldd	r24, Y+4	; 0x04
     f50:	9d 81       	ldd	r25, Y+5	; 0x05
     f52:	0e 94 60 09 	call	0x12c0	; 0x12c0 <item_cut>
    }
}
     f56:	0f 90       	pop	r0
     f58:	0f 90       	pop	r0
     f5a:	0f 90       	pop	r0
     f5c:	0f 90       	pop	r0
     f5e:	0f 90       	pop	r0
     f60:	cf 91       	pop	r28
     f62:	df 91       	pop	r29
     f64:	08 95       	ret

00000f66 <gitem_cut>:
// Вырезать из списка
void gitem_cut(gitem_t * gitem)
{
     f66:	df 93       	push	r29
     f68:	cf 93       	push	r28
     f6a:	00 d0       	rcall	.+0      	; 0xf6c <gitem_cut+0x6>
     f6c:	cd b7       	in	r28, 0x3d	; 61
     f6e:	de b7       	in	r29, 0x3e	; 62
     f70:	9a 83       	std	Y+2, r25	; 0x02
     f72:	89 83       	std	Y+1, r24	; 0x01
    gitem_fast_cut( gitem );
     f74:	89 81       	ldd	r24, Y+1	; 0x01
     f76:	9a 81       	ldd	r25, Y+2	; 0x02
     f78:	0e 94 2d 07 	call	0xe5a	; 0xe5a <gitem_fast_cut>
    gitem->group->link = (void *)0;
     f7c:	e9 81       	ldd	r30, Y+1	; 0x01
     f7e:	fa 81       	ldd	r31, Y+2	; 0x02
     f80:	04 80       	ldd	r0, Z+4	; 0x04
     f82:	f5 81       	ldd	r31, Z+5	; 0x05
     f84:	e0 2d       	mov	r30, r0
     f86:	11 82       	std	Z+1, r1	; 0x01
     f88:	10 82       	st	Z, r1
}
     f8a:	0f 90       	pop	r0
     f8c:	0f 90       	pop	r0
     f8e:	cf 91       	pop	r28
     f90:	df 91       	pop	r29
     f92:	08 95       	ret

00000f94 <gitem_xlist_merge>:
 1) Оба списка содержат только объекты типа gitem_t
 2) В списке source на каждом уровне приоритета все объекты типа gitem_t приенадлежат к одной группе.
 3) Элементы списка source, находящиеся на разных уровнях приоритета, пренадлежат разным группам.
*/
void gitem_xlist_merge(xlist_t * source, xlist_t * destignation)
{
     f94:	df 93       	push	r29
     f96:	cf 93       	push	r28
     f98:	cd b7       	in	r28, 0x3d	; 61
     f9a:	de b7       	in	r29, 0x3e	; 62
     f9c:	2c 97       	sbiw	r28, 0x0c	; 12
     f9e:	0f b6       	in	r0, 0x3f	; 63
     fa0:	f8 94       	cli
     fa2:	de bf       	out	0x3e, r29	; 62
     fa4:	0f be       	out	0x3f, r0	; 63
     fa6:	cd bf       	out	0x3d, r28	; 61
     fa8:	9a 87       	std	Y+10, r25	; 0x0a
     faa:	89 87       	std	Y+9, r24	; 0x09
     fac:	7c 87       	std	Y+12, r23	; 0x0c
     fae:	6b 87       	std	Y+11, r22	; 0x0b
    index_t mask = (index_t)1;
     fb0:	81 e0       	ldi	r24, 0x01	; 1
     fb2:	88 87       	std	Y+8, r24	; 0x08
    prio_t current_prio = (prio_t)0;
     fb4:	1f 82       	std	Y+7, r1	; 0x07
     fb6:	9a c0       	rjmp	.+308    	; 0x10ec <gitem_xlist_merge+0x158>
    while( mask )
    {
        // Есть че перенести?
        if( mask & source->index )
     fb8:	e9 85       	ldd	r30, Y+9	; 0x09
     fba:	fa 85       	ldd	r31, Y+10	; 0x0a
     fbc:	90 89       	ldd	r25, Z+16	; 0x10
     fbe:	88 85       	ldd	r24, Y+8	; 0x08
     fc0:	89 23       	and	r24, r25
     fc2:	88 23       	and	r24, r24
     fc4:	09 f4       	brne	.+2      	; 0xfc8 <gitem_xlist_merge+0x34>
     fc6:	8c c0       	rjmp	.+280    	; 0x10e0 <gitem_xlist_merge+0x14c>
        {
            // Есть!
            // Есть куда переносить?
            if( mask & destignation->index )
     fc8:	eb 85       	ldd	r30, Y+11	; 0x0b
     fca:	fc 85       	ldd	r31, Y+12	; 0x0c
     fcc:	90 89       	ldd	r25, Z+16	; 0x10
     fce:	88 85       	ldd	r24, Y+8	; 0x08
     fd0:	89 23       	and	r24, r25
     fd2:	88 23       	and	r24, r24
     fd4:	09 f4       	brne	.+2      	; 0xfd8 <gitem_xlist_merge+0x44>
     fd6:	43 c0       	rjmp	.+134    	; 0x105e <gitem_xlist_merge+0xca>
            {
                //Есть!
                // Сшиваем 2 2-связных списка!!!
                item_t * src = source->item[current_prio];
     fd8:	8f 81       	ldd	r24, Y+7	; 0x07
     fda:	88 2f       	mov	r24, r24
     fdc:	90 e0       	ldi	r25, 0x00	; 0
     fde:	29 85       	ldd	r18, Y+9	; 0x09
     fe0:	3a 85       	ldd	r19, Y+10	; 0x0a
     fe2:	88 0f       	add	r24, r24
     fe4:	99 1f       	adc	r25, r25
     fe6:	f9 01       	movw	r30, r18
     fe8:	e8 0f       	add	r30, r24
     fea:	f9 1f       	adc	r31, r25
     fec:	80 81       	ld	r24, Z
     fee:	91 81       	ldd	r25, Z+1	; 0x01
     ff0:	9e 83       	std	Y+6, r25	; 0x06
     ff2:	8d 83       	std	Y+5, r24	; 0x05
                item_t * dst = destignation->item[current_prio];
     ff4:	8f 81       	ldd	r24, Y+7	; 0x07
     ff6:	88 2f       	mov	r24, r24
     ff8:	90 e0       	ldi	r25, 0x00	; 0
     ffa:	2b 85       	ldd	r18, Y+11	; 0x0b
     ffc:	3c 85       	ldd	r19, Y+12	; 0x0c
     ffe:	88 0f       	add	r24, r24
    1000:	99 1f       	adc	r25, r25
    1002:	f9 01       	movw	r30, r18
    1004:	e8 0f       	add	r30, r24
    1006:	f9 1f       	adc	r31, r25
    1008:	80 81       	ld	r24, Z
    100a:	91 81       	ldd	r25, Z+1	; 0x01
    100c:	9c 83       	std	Y+4, r25	; 0x04
    100e:	8b 83       	std	Y+3, r24	; 0x03
                src->prev->next = dst;
    1010:	ed 81       	ldd	r30, Y+5	; 0x05
    1012:	fe 81       	ldd	r31, Y+6	; 0x06
    1014:	02 80       	ldd	r0, Z+2	; 0x02
    1016:	f3 81       	ldd	r31, Z+3	; 0x03
    1018:	e0 2d       	mov	r30, r0
    101a:	8b 81       	ldd	r24, Y+3	; 0x03
    101c:	9c 81       	ldd	r25, Y+4	; 0x04
    101e:	91 83       	std	Z+1, r25	; 0x01
    1020:	80 83       	st	Z, r24
                dst->prev->next = src;
    1022:	eb 81       	ldd	r30, Y+3	; 0x03
    1024:	fc 81       	ldd	r31, Y+4	; 0x04
    1026:	02 80       	ldd	r0, Z+2	; 0x02
    1028:	f3 81       	ldd	r31, Z+3	; 0x03
    102a:	e0 2d       	mov	r30, r0
    102c:	8d 81       	ldd	r24, Y+5	; 0x05
    102e:	9e 81       	ldd	r25, Y+6	; 0x06
    1030:	91 83       	std	Z+1, r25	; 0x01
    1032:	80 83       	st	Z, r24
                item_t * buf = dst->prev;
    1034:	eb 81       	ldd	r30, Y+3	; 0x03
    1036:	fc 81       	ldd	r31, Y+4	; 0x04
    1038:	82 81       	ldd	r24, Z+2	; 0x02
    103a:	93 81       	ldd	r25, Z+3	; 0x03
    103c:	9a 83       	std	Y+2, r25	; 0x02
    103e:	89 83       	std	Y+1, r24	; 0x01
                dst->prev = src->prev;
    1040:	ed 81       	ldd	r30, Y+5	; 0x05
    1042:	fe 81       	ldd	r31, Y+6	; 0x06
    1044:	82 81       	ldd	r24, Z+2	; 0x02
    1046:	93 81       	ldd	r25, Z+3	; 0x03
    1048:	eb 81       	ldd	r30, Y+3	; 0x03
    104a:	fc 81       	ldd	r31, Y+4	; 0x04
    104c:	93 83       	std	Z+3, r25	; 0x03
    104e:	82 83       	std	Z+2, r24	; 0x02
                src->prev = buf;
    1050:	ed 81       	ldd	r30, Y+5	; 0x05
    1052:	fe 81       	ldd	r31, Y+6	; 0x06
    1054:	89 81       	ldd	r24, Y+1	; 0x01
    1056:	9a 81       	ldd	r25, Y+2	; 0x02
    1058:	93 83       	std	Z+3, r25	; 0x03
    105a:	82 83       	std	Z+2, r24	; 0x02
    105c:	21 c0       	rjmp	.+66     	; 0x10a0 <gitem_xlist_merge+0x10c>
            }
            else
            {
                //Нет, тупо переносим всю группу.
                destignation->item[current_prio] = source->item[current_prio];
    105e:	8f 81       	ldd	r24, Y+7	; 0x07
    1060:	68 2f       	mov	r22, r24
    1062:	70 e0       	ldi	r23, 0x00	; 0
    1064:	8f 81       	ldd	r24, Y+7	; 0x07
    1066:	88 2f       	mov	r24, r24
    1068:	90 e0       	ldi	r25, 0x00	; 0
    106a:	29 85       	ldd	r18, Y+9	; 0x09
    106c:	3a 85       	ldd	r19, Y+10	; 0x0a
    106e:	88 0f       	add	r24, r24
    1070:	99 1f       	adc	r25, r25
    1072:	f9 01       	movw	r30, r18
    1074:	e8 0f       	add	r30, r24
    1076:	f9 1f       	adc	r31, r25
    1078:	40 81       	ld	r20, Z
    107a:	51 81       	ldd	r21, Z+1	; 0x01
    107c:	2b 85       	ldd	r18, Y+11	; 0x0b
    107e:	3c 85       	ldd	r19, Y+12	; 0x0c
    1080:	cb 01       	movw	r24, r22
    1082:	88 0f       	add	r24, r24
    1084:	99 1f       	adc	r25, r25
    1086:	f9 01       	movw	r30, r18
    1088:	e8 0f       	add	r30, r24
    108a:	f9 1f       	adc	r31, r25
    108c:	51 83       	std	Z+1, r21	; 0x01
    108e:	40 83       	st	Z, r20
                destignation->index |= mask;
    1090:	eb 85       	ldd	r30, Y+11	; 0x0b
    1092:	fc 85       	ldd	r31, Y+12	; 0x0c
    1094:	90 89       	ldd	r25, Z+16	; 0x10
    1096:	88 85       	ldd	r24, Y+8	; 0x08
    1098:	89 2b       	or	r24, r25
    109a:	eb 85       	ldd	r30, Y+11	; 0x0b
    109c:	fc 85       	ldd	r31, Y+12	; 0x0c
    109e:	80 8b       	std	Z+16, r24	; 0x10
            }
            // Вот почему эта функция отнесена к методам gitem_t
            ((gitem_t *)source->item[current_prio])->group->link = (void *)destignation;
    10a0:	8f 81       	ldd	r24, Y+7	; 0x07
    10a2:	88 2f       	mov	r24, r24
    10a4:	90 e0       	ldi	r25, 0x00	; 0
    10a6:	29 85       	ldd	r18, Y+9	; 0x09
    10a8:	3a 85       	ldd	r19, Y+10	; 0x0a
    10aa:	88 0f       	add	r24, r24
    10ac:	99 1f       	adc	r25, r25
    10ae:	f9 01       	movw	r30, r18
    10b0:	e8 0f       	add	r30, r24
    10b2:	f9 1f       	adc	r31, r25
    10b4:	80 81       	ld	r24, Z
    10b6:	91 81       	ldd	r25, Z+1	; 0x01
    10b8:	fc 01       	movw	r30, r24
    10ba:	04 80       	ldd	r0, Z+4	; 0x04
    10bc:	f5 81       	ldd	r31, Z+5	; 0x05
    10be:	e0 2d       	mov	r30, r0
    10c0:	8b 85       	ldd	r24, Y+11	; 0x0b
    10c2:	9c 85       	ldd	r25, Y+12	; 0x0c
    10c4:	91 83       	std	Z+1, r25	; 0x01
    10c6:	80 83       	st	Z, r24
            // Перенос закончен, обнуляем указатель
            source->item[(prio_t)current_prio] = (item_t *)0;
    10c8:	8f 81       	ldd	r24, Y+7	; 0x07
    10ca:	88 2f       	mov	r24, r24
    10cc:	90 e0       	ldi	r25, 0x00	; 0
    10ce:	29 85       	ldd	r18, Y+9	; 0x09
    10d0:	3a 85       	ldd	r19, Y+10	; 0x0a
    10d2:	88 0f       	add	r24, r24
    10d4:	99 1f       	adc	r25, r25
    10d6:	f9 01       	movw	r30, r18
    10d8:	e8 0f       	add	r30, r24
    10da:	f9 1f       	adc	r31, r25
    10dc:	11 82       	std	Z+1, r1	; 0x01
    10de:	10 82       	st	Z, r1
        }
        mask<<=1;
    10e0:	88 85       	ldd	r24, Y+8	; 0x08
    10e2:	88 0f       	add	r24, r24
    10e4:	88 87       	std	Y+8, r24	; 0x08
        current_prio++;
    10e6:	8f 81       	ldd	r24, Y+7	; 0x07
    10e8:	8f 5f       	subi	r24, 0xFF	; 255
    10ea:	8f 83       	std	Y+7, r24	; 0x07
*/
void gitem_xlist_merge(xlist_t * source, xlist_t * destignation)
{
    index_t mask = (index_t)1;
    prio_t current_prio = (prio_t)0;
    while( mask )
    10ec:	88 85       	ldd	r24, Y+8	; 0x08
    10ee:	88 23       	and	r24, r24
    10f0:	09 f0       	breq	.+2      	; 0x10f4 <gitem_xlist_merge+0x160>
    10f2:	62 cf       	rjmp	.-316    	; 0xfb8 <gitem_xlist_merge+0x24>
        }
        mask<<=1;
        current_prio++;
    }
    // Список полностью перенесен, обнуляем индекс
    source->index = (index_t)0;
    10f4:	e9 85       	ldd	r30, Y+9	; 0x09
    10f6:	fa 85       	ldd	r31, Y+10	; 0x0a
    10f8:	10 8a       	std	Z+16, r1	; 0x10
}
    10fa:	2c 96       	adiw	r28, 0x0c	; 12
    10fc:	0f b6       	in	r0, 0x3f	; 63
    10fe:	f8 94       	cli
    1100:	de bf       	out	0x3e, r29	; 62
    1102:	0f be       	out	0x3f, r0	; 63
    1104:	cd bf       	out	0x3d, r28	; 61
    1106:	cf 91       	pop	r28
    1108:	df 91       	pop	r29
    110a:	08 95       	ret

0000110c <group_init>:
*****************************************************************************************/
#include "../include/bugurt.h"
//Методы group_t
// инициация
void group_init(group_t * group, prio_t prio)
{
    110c:	df 93       	push	r29
    110e:	cf 93       	push	r28
    1110:	00 d0       	rcall	.+0      	; 0x1112 <group_init+0x6>
    1112:	0f 92       	push	r0
    1114:	cd b7       	in	r28, 0x3d	; 61
    1116:	de b7       	in	r29, 0x3e	; 62
    1118:	9a 83       	std	Y+2, r25	; 0x02
    111a:	89 83       	std	Y+1, r24	; 0x01
    111c:	6b 83       	std	Y+3, r22	; 0x03
    group->link = (void *)0;
    111e:	e9 81       	ldd	r30, Y+1	; 0x01
    1120:	fa 81       	ldd	r31, Y+2	; 0x02
    1122:	11 82       	std	Z+1, r1	; 0x01
    1124:	10 82       	st	Z, r1
    group->prio = prio;
    1126:	e9 81       	ldd	r30, Y+1	; 0x01
    1128:	fa 81       	ldd	r31, Y+2	; 0x02
    112a:	8b 81       	ldd	r24, Y+3	; 0x03
    112c:	82 83       	std	Z+2, r24	; 0x02
    // группа - часть gitem_t, количество элементов - 1
    group->el_num = (count_t)1;
    112e:	e9 81       	ldd	r30, Y+1	; 0x01
    1130:	fa 81       	ldd	r31, Y+2	; 0x02
    1132:	81 e0       	ldi	r24, 0x01	; 1
    1134:	90 e0       	ldi	r25, 0x00	; 0
    1136:	94 83       	std	Z+4, r25	; 0x04
    1138:	83 83       	std	Z+3, r24	; 0x03
}
    113a:	0f 90       	pop	r0
    113c:	0f 90       	pop	r0
    113e:	0f 90       	pop	r0
    1140:	cf 91       	pop	r28
    1142:	df 91       	pop	r29
    1144:	08 95       	ret

00001146 <group_push>:
// положить в ПУЛ
void group_push(group_t * group)
{
    1146:	df 93       	push	r29
    1148:	cf 93       	push	r28
    114a:	00 d0       	rcall	.+0      	; 0x114c <group_push+0x6>
    114c:	cd b7       	in	r28, 0x3d	; 61
    114e:	de b7       	in	r29, 0x3e	; 62
    1150:	9a 83       	std	Y+2, r25	; 0x02
    1152:	89 83       	std	Y+1, r24	; 0x01
#ifdef CONFIG_MP
    // блокируем пул
    spin_lock( &kernel.pool_lock );
#endif
    group->link = (void *)kernel.pool;
    1154:	80 91 fa 01 	lds	r24, 0x01FA
    1158:	90 91 fb 01 	lds	r25, 0x01FB
    115c:	e9 81       	ldd	r30, Y+1	; 0x01
    115e:	fa 81       	ldd	r31, Y+2	; 0x02
    1160:	91 83       	std	Z+1, r25	; 0x01
    1162:	80 83       	st	Z, r24
    kernel.pool = group;
    1164:	89 81       	ldd	r24, Y+1	; 0x01
    1166:	9a 81       	ldd	r25, Y+2	; 0x02
    1168:	90 93 fb 01 	sts	0x01FB, r25
    116c:	80 93 fa 01 	sts	0x01FA, r24
#ifdef CONFIG_MP
    // разблокируем пул
    spin_unlock( &kernel.pool_lock );
#endif
}
    1170:	0f 90       	pop	r0
    1172:	0f 90       	pop	r0
    1174:	cf 91       	pop	r28
    1176:	df 91       	pop	r29
    1178:	08 95       	ret

0000117a <group_pop>:
// взять из пула, если есть, а есть всегда, избыточность же!
group_t * group_pop(void)
{
    117a:	df 93       	push	r29
    117c:	cf 93       	push	r28
    117e:	00 d0       	rcall	.+0      	; 0x1180 <group_pop+0x6>
    1180:	cd b7       	in	r28, 0x3d	; 61
    1182:	de b7       	in	r29, 0x3e	; 62
#ifdef CONFIG_MP
    // блокируем пул
    spin_lock( &kernel.pool_lock );
#endif
    group_t * group = kernel.pool;
    1184:	80 91 fa 01 	lds	r24, 0x01FA
    1188:	90 91 fb 01 	lds	r25, 0x01FB
    118c:	9a 83       	std	Y+2, r25	; 0x02
    118e:	89 83       	std	Y+1, r24	; 0x01
    kernel.pool = (group_t *)group->link;
    1190:	e9 81       	ldd	r30, Y+1	; 0x01
    1192:	fa 81       	ldd	r31, Y+2	; 0x02
    1194:	80 81       	ld	r24, Z
    1196:	91 81       	ldd	r25, Z+1	; 0x01
    1198:	90 93 fb 01 	sts	0x01FB, r25
    119c:	80 93 fa 01 	sts	0x01FA, r24
#ifdef CONFIG_MP
    // разблокируем пул
    spin_unlock( &kernel.pool_lock );
#endif
    return group;
    11a0:	89 81       	ldd	r24, Y+1	; 0x01
    11a2:	9a 81       	ldd	r25, Y+2	; 0x02
}
    11a4:	0f 90       	pop	r0
    11a6:	0f 90       	pop	r0
    11a8:	cf 91       	pop	r28
    11aa:	df 91       	pop	r29
    11ac:	08 95       	ret

000011ae <index_search>:
*                           http://www.0chan.ru/r/res/9996.html                          *
*                                                                                        *
*****************************************************************************************/
#include "../include/bugurt.h"
prio_t index_search(index_t index)
{
    11ae:	df 93       	push	r29
    11b0:	cf 93       	push	r28
    11b2:	00 d0       	rcall	.+0      	; 0x11b4 <index_search+0x6>
    11b4:	00 d0       	rcall	.+0      	; 0x11b6 <index_search+0x8>
    11b6:	00 d0       	rcall	.+0      	; 0x11b8 <index_search+0xa>
    11b8:	cd b7       	in	r28, 0x3d	; 61
    11ba:	de b7       	in	r29, 0x3e	; 62
    11bc:	8e 83       	std	Y+6, r24	; 0x06
    prio_t prio = (prio_t)0;
    11be:	1d 82       	std	Y+5, r1	; 0x05
        но, т.к. BITS_IN_INDEX_T фиксировано для данной конфигурации,
        то получается время выполнения - O(1), ВСЕГДА.

        И да, предсказуемость + переносимость > быстродействие.
        */
    index_t upper = ~(index_t)0, lower = ~(index_t)0, middle;
    11c0:	8f ef       	ldi	r24, 0xFF	; 255
    11c2:	8c 83       	std	Y+4, r24	; 0x04
    11c4:	8f ef       	ldi	r24, 0xFF	; 255
    11c6:	8b 83       	std	Y+3, r24	; 0x03
    prio_t step = (prio_t)BITS_IN_INDEX_T;
    11c8:	88 e0       	ldi	r24, 0x08	; 8
    11ca:	89 83       	std	Y+1, r24	; 0x01
    11cc:	22 c0       	rjmp	.+68     	; 0x1212 <index_search+0x64>
    while( step )
    {
        step>>=1; // делим шаг пополам
    11ce:	89 81       	ldd	r24, Y+1	; 0x01
    11d0:	86 95       	lsr	r24
    11d2:	89 83       	std	Y+1, r24	; 0x01
        middle = lower>>step;
    11d4:	8b 81       	ldd	r24, Y+3	; 0x03
    11d6:	28 2f       	mov	r18, r24
    11d8:	30 e0       	ldi	r19, 0x00	; 0
    11da:	89 81       	ldd	r24, Y+1	; 0x01
    11dc:	88 2f       	mov	r24, r24
    11de:	90 e0       	ldi	r25, 0x00	; 0
    11e0:	a9 01       	movw	r20, r18
    11e2:	02 c0       	rjmp	.+4      	; 0x11e8 <index_search+0x3a>
    11e4:	55 95       	asr	r21
    11e6:	47 95       	ror	r20
    11e8:	8a 95       	dec	r24
    11ea:	e2 f7       	brpl	.-8      	; 0x11e4 <index_search+0x36>
    11ec:	ca 01       	movw	r24, r20
    11ee:	8a 83       	std	Y+2, r24	; 0x02
        if( index & upper & middle )
    11f0:	9e 81       	ldd	r25, Y+6	; 0x06
    11f2:	8c 81       	ldd	r24, Y+4	; 0x04
    11f4:	98 23       	and	r25, r24
    11f6:	8a 81       	ldd	r24, Y+2	; 0x02
    11f8:	89 23       	and	r24, r25
    11fa:	88 23       	and	r24, r24
    11fc:	19 f0       	breq	.+6      	; 0x1204 <index_search+0x56>
        {
            lower = middle;
    11fe:	8a 81       	ldd	r24, Y+2	; 0x02
    1200:	8b 83       	std	Y+3, r24	; 0x03
    1202:	07 c0       	rjmp	.+14     	; 0x1212 <index_search+0x64>
        }
        else
        {
            upper = ~middle;
    1204:	8a 81       	ldd	r24, Y+2	; 0x02
    1206:	80 95       	com	r24
    1208:	8c 83       	std	Y+4, r24	; 0x04
            prio += step;
    120a:	9d 81       	ldd	r25, Y+5	; 0x05
    120c:	89 81       	ldd	r24, Y+1	; 0x01
    120e:	89 0f       	add	r24, r25
    1210:	8d 83       	std	Y+5, r24	; 0x05

        И да, предсказуемость + переносимость > быстродействие.
        */
    index_t upper = ~(index_t)0, lower = ~(index_t)0, middle;
    prio_t step = (prio_t)BITS_IN_INDEX_T;
    while( step )
    1212:	89 81       	ldd	r24, Y+1	; 0x01
    1214:	88 23       	and	r24, r24
    1216:	d9 f6       	brne	.-74     	; 0x11ce <index_search+0x20>
        if ( mask & index )break;
        prio++;
        mask<<=1;
    }
#endif
    return prio;
    1218:	8d 81       	ldd	r24, Y+5	; 0x05
}
    121a:	26 96       	adiw	r28, 0x06	; 6
    121c:	0f b6       	in	r0, 0x3f	; 63
    121e:	f8 94       	cli
    1220:	de bf       	out	0x3e, r29	; 62
    1222:	0f be       	out	0x3f, r0	; 63
    1224:	cd bf       	out	0x3d, r28	; 61
    1226:	cf 91       	pop	r28
    1228:	df 91       	pop	r29
    122a:	08 95       	ret

0000122c <item_init>:
*****************************************************************************************/
#include "../include/bugurt.h"
//Методы элемента 2-связного списка
//инициация элемента
void item_init(item_t *item)
{
    122c:	df 93       	push	r29
    122e:	cf 93       	push	r28
    1230:	00 d0       	rcall	.+0      	; 0x1232 <item_init+0x6>
    1232:	cd b7       	in	r28, 0x3d	; 61
    1234:	de b7       	in	r29, 0x3e	; 62
    1236:	9a 83       	std	Y+2, r25	; 0x02
    1238:	89 83       	std	Y+1, r24	; 0x01
    item->prev = item;
    123a:	e9 81       	ldd	r30, Y+1	; 0x01
    123c:	fa 81       	ldd	r31, Y+2	; 0x02
    123e:	89 81       	ldd	r24, Y+1	; 0x01
    1240:	9a 81       	ldd	r25, Y+2	; 0x02
    1242:	93 83       	std	Z+3, r25	; 0x03
    1244:	82 83       	std	Z+2, r24	; 0x02
    item->next = item;
    1246:	e9 81       	ldd	r30, Y+1	; 0x01
    1248:	fa 81       	ldd	r31, Y+2	; 0x02
    124a:	89 81       	ldd	r24, Y+1	; 0x01
    124c:	9a 81       	ldd	r25, Y+2	; 0x02
    124e:	91 83       	std	Z+1, r25	; 0x01
    1250:	80 83       	st	Z, r24
}
    1252:	0f 90       	pop	r0
    1254:	0f 90       	pop	r0
    1256:	cf 91       	pop	r28
    1258:	df 91       	pop	r29
    125a:	08 95       	ret

0000125c <item_insert>:
//Вставить элемент
void item_insert(item_t *item, item_t *head)
{
    125c:	df 93       	push	r29
    125e:	cf 93       	push	r28
    1260:	00 d0       	rcall	.+0      	; 0x1262 <item_insert+0x6>
    1262:	00 d0       	rcall	.+0      	; 0x1264 <item_insert+0x8>
    1264:	00 d0       	rcall	.+0      	; 0x1266 <item_insert+0xa>
    1266:	cd b7       	in	r28, 0x3d	; 61
    1268:	de b7       	in	r29, 0x3e	; 62
    126a:	9c 83       	std	Y+4, r25	; 0x04
    126c:	8b 83       	std	Y+3, r24	; 0x03
    126e:	7e 83       	std	Y+6, r23	; 0x06
    1270:	6d 83       	std	Y+5, r22	; 0x05
    // "хвост" списка
    item_t * tail = head->prev;
    1272:	ed 81       	ldd	r30, Y+5	; 0x05
    1274:	fe 81       	ldd	r31, Y+6	; 0x06
    1276:	82 81       	ldd	r24, Z+2	; 0x02
    1278:	93 81       	ldd	r25, Z+3	; 0x03
    127a:	9a 83       	std	Y+2, r25	; 0x02
    127c:	89 83       	std	Y+1, r24	; 0x01

    // Вставляем элемент между "головой" и "хвостом"
    item->prev = tail;
    127e:	eb 81       	ldd	r30, Y+3	; 0x03
    1280:	fc 81       	ldd	r31, Y+4	; 0x04
    1282:	89 81       	ldd	r24, Y+1	; 0x01
    1284:	9a 81       	ldd	r25, Y+2	; 0x02
    1286:	93 83       	std	Z+3, r25	; 0x03
    1288:	82 83       	std	Z+2, r24	; 0x02
    item->next = head;
    128a:	eb 81       	ldd	r30, Y+3	; 0x03
    128c:	fc 81       	ldd	r31, Y+4	; 0x04
    128e:	8d 81       	ldd	r24, Y+5	; 0x05
    1290:	9e 81       	ldd	r25, Y+6	; 0x06
    1292:	91 83       	std	Z+1, r25	; 0x01
    1294:	80 83       	st	Z, r24

    head->prev = item;
    1296:	ed 81       	ldd	r30, Y+5	; 0x05
    1298:	fe 81       	ldd	r31, Y+6	; 0x06
    129a:	8b 81       	ldd	r24, Y+3	; 0x03
    129c:	9c 81       	ldd	r25, Y+4	; 0x04
    129e:	93 83       	std	Z+3, r25	; 0x03
    12a0:	82 83       	std	Z+2, r24	; 0x02
    tail->next = item;
    12a2:	e9 81       	ldd	r30, Y+1	; 0x01
    12a4:	fa 81       	ldd	r31, Y+2	; 0x02
    12a6:	8b 81       	ldd	r24, Y+3	; 0x03
    12a8:	9c 81       	ldd	r25, Y+4	; 0x04
    12aa:	91 83       	std	Z+1, r25	; 0x01
    12ac:	80 83       	st	Z, r24
}
    12ae:	26 96       	adiw	r28, 0x06	; 6
    12b0:	0f b6       	in	r0, 0x3f	; 63
    12b2:	f8 94       	cli
    12b4:	de bf       	out	0x3e, r29	; 62
    12b6:	0f be       	out	0x3f, r0	; 63
    12b8:	cd bf       	out	0x3d, r28	; 61
    12ba:	cf 91       	pop	r28
    12bc:	df 91       	pop	r29
    12be:	08 95       	ret

000012c0 <item_cut>:
//Вырезать элемент
void item_cut( item_t *item )
{
    12c0:	df 93       	push	r29
    12c2:	cf 93       	push	r28
    12c4:	00 d0       	rcall	.+0      	; 0x12c6 <item_cut+0x6>
    12c6:	00 d0       	rcall	.+0      	; 0x12c8 <item_cut+0x8>
    12c8:	00 d0       	rcall	.+0      	; 0x12ca <item_cut+0xa>
    12ca:	cd b7       	in	r28, 0x3d	; 61
    12cc:	de b7       	in	r29, 0x3e	; 62
    12ce:	9e 83       	std	Y+6, r25	; 0x06
    12d0:	8d 83       	std	Y+5, r24	; 0x05
    item_t * prev = item->prev; //Предыдущий элемент
    12d2:	ed 81       	ldd	r30, Y+5	; 0x05
    12d4:	fe 81       	ldd	r31, Y+6	; 0x06
    12d6:	82 81       	ldd	r24, Z+2	; 0x02
    12d8:	93 81       	ldd	r25, Z+3	; 0x03
    12da:	9c 83       	std	Y+4, r25	; 0x04
    12dc:	8b 83       	std	Y+3, r24	; 0x03
    item_t * next = item->next; //Следующий элемент
    12de:	ed 81       	ldd	r30, Y+5	; 0x05
    12e0:	fe 81       	ldd	r31, Y+6	; 0x06
    12e2:	80 81       	ld	r24, Z
    12e4:	91 81       	ldd	r25, Z+1	; 0x01
    12e6:	9a 83       	std	Y+2, r25	; 0x02
    12e8:	89 83       	std	Y+1, r24	; 0x01

    next->prev = prev;
    12ea:	e9 81       	ldd	r30, Y+1	; 0x01
    12ec:	fa 81       	ldd	r31, Y+2	; 0x02
    12ee:	8b 81       	ldd	r24, Y+3	; 0x03
    12f0:	9c 81       	ldd	r25, Y+4	; 0x04
    12f2:	93 83       	std	Z+3, r25	; 0x03
    12f4:	82 83       	std	Z+2, r24	; 0x02
    prev->next = next;
    12f6:	eb 81       	ldd	r30, Y+3	; 0x03
    12f8:	fc 81       	ldd	r31, Y+4	; 0x04
    12fa:	89 81       	ldd	r24, Y+1	; 0x01
    12fc:	9a 81       	ldd	r25, Y+2	; 0x02
    12fe:	91 83       	std	Z+1, r25	; 0x01
    1300:	80 83       	st	Z, r24

    item->prev = item;
    1302:	ed 81       	ldd	r30, Y+5	; 0x05
    1304:	fe 81       	ldd	r31, Y+6	; 0x06
    1306:	8d 81       	ldd	r24, Y+5	; 0x05
    1308:	9e 81       	ldd	r25, Y+6	; 0x06
    130a:	93 83       	std	Z+3, r25	; 0x03
    130c:	82 83       	std	Z+2, r24	; 0x02
    item->next = item;
    130e:	ed 81       	ldd	r30, Y+5	; 0x05
    1310:	fe 81       	ldd	r31, Y+6	; 0x06
    1312:	8d 81       	ldd	r24, Y+5	; 0x05
    1314:	9e 81       	ldd	r25, Y+6	; 0x06
    1316:	91 83       	std	Z+1, r25	; 0x01
    1318:	80 83       	st	Z, r24
}
    131a:	26 96       	adiw	r28, 0x06	; 6
    131c:	0f b6       	in	r0, 0x3f	; 63
    131e:	f8 94       	cli
    1320:	de bf       	out	0x3e, r29	; 62
    1322:	0f be       	out	0x3f, r0	; 63
    1324:	cd bf       	out	0x3d, r28	; 61
    1326:	cf 91       	pop	r28
    1328:	df 91       	pop	r29
    132a:	08 95       	ret

0000132c <kernel_init>:
{
    while(1);
}

void kernel_init(void)
{
    132c:	8f 92       	push	r8
    132e:	af 92       	push	r10
    1330:	bf 92       	push	r11
    1332:	cf 92       	push	r12
    1334:	ef 92       	push	r14
    1336:	ff 92       	push	r15
    1338:	0f 93       	push	r16
    133a:	1f 93       	push	r17
    133c:	df 93       	push	r29
    133e:	cf 93       	push	r28
    1340:	cd b7       	in	r28, 0x3d	; 61
    1342:	de b7       	in	r29, 0x3e	; 62
        stat_init( (stat_t *)kernel.stat + i );
        sched_init( (sched_t *)kernel.sched + i, (proc_t *)kernel.idle + i );
    }
    spin_unlock( &kernel.stat_lock );
#else
    proc_init_isr(
    1344:	8c ec       	ldi	r24, 0xCC	; 204
    1346:	91 e0       	ldi	r25, 0x01	; 1
    1348:	29 e1       	ldi	r18, 0x19	; 25
    134a:	32 e1       	ldi	r19, 0x12	; 18
    134c:	b9 01       	movw	r22, r18
    134e:	40 e0       	ldi	r20, 0x00	; 0
    1350:	50 e0       	ldi	r21, 0x00	; 0
    1352:	20 e0       	ldi	r18, 0x00	; 0
    1354:	30 e0       	ldi	r19, 0x00	; 0
    1356:	00 e0       	ldi	r16, 0x00	; 0
    1358:	10 e0       	ldi	r17, 0x00	; 0
    135a:	ee 24       	eor	r14, r14
    135c:	ff 24       	eor	r15, r15
    135e:	0f 2e       	mov	r0, r31
    1360:	f7 e0       	ldi	r31, 0x07	; 7
    1362:	cf 2e       	mov	r12, r31
    1364:	f0 2d       	mov	r31, r0
    1366:	aa 24       	eor	r10, r10
    1368:	bb 24       	eor	r11, r11
    136a:	a3 94       	inc	r10
    136c:	88 24       	eor	r8, r8
    136e:	0e 94 6c 0b 	call	0x16d8	; 0x16d8 <proc_init_isr>
        0, // это не важно, при первой же смене контекста будет сохранен текущий указатель стека
        ((prio_t)BITS_IN_INDEX_T - (prio_t)1),// низший приоритет
        (timer_t)1,//минимальный квант времени
        (bool_t)0// не RT
    );
    sched_init( (sched_t *)&kernel.sched, (proc_t *)&kernel.idle );
    1372:	82 ea       	ldi	r24, 0xA2	; 162
    1374:	91 e0       	ldi	r25, 0x01	; 1
    1376:	2c ec       	ldi	r18, 0xCC	; 204
    1378:	31 e0       	ldi	r19, 0x01	; 1
    137a:	b9 01       	movw	r22, r18
    137c:	0e 94 cc 0d 	call	0x1b98	; 0x1b98 <sched_init>
#endif // CONFIG_MP
}
    1380:	cf 91       	pop	r28
    1382:	df 91       	pop	r29
    1384:	1f 91       	pop	r17
    1386:	0f 91       	pop	r16
    1388:	ff 90       	pop	r15
    138a:	ef 90       	pop	r14
    138c:	cf 90       	pop	r12
    138e:	bf 90       	pop	r11
    1390:	af 90       	pop	r10
    1392:	8f 90       	pop	r8
    1394:	08 95       	ret

00001396 <mutex_init_isr>:
    mutex_t * mutex
#ifdef CONFIG_USE_HIGHEST_LOCKER
    ,prio_t prio
#endif // CONFIG_USE_HIGHEST_LOCKER
)
{
    1396:	df 93       	push	r29
    1398:	cf 93       	push	r28
    139a:	00 d0       	rcall	.+0      	; 0x139c <mutex_init_isr+0x6>
    139c:	0f 92       	push	r0
    139e:	cd b7       	in	r28, 0x3d	; 61
    13a0:	de b7       	in	r29, 0x3e	; 62
    13a2:	9a 83       	std	Y+2, r25	; 0x02
    13a4:	89 83       	std	Y+1, r24	; 0x01
    13a6:	6b 83       	std	Y+3, r22	; 0x03
    xlist_init( (xlist_t *)mutex );
    13a8:	89 81       	ldd	r24, Y+1	; 0x01
    13aa:	9a 81       	ldd	r25, Y+2	; 0x02
    13ac:	0e 94 a4 10 	call	0x2148	; 0x2148 <xlist_init>
    mutex->free = (bool_t)1;
    13b0:	e9 81       	ldd	r30, Y+1	; 0x01
    13b2:	fa 81       	ldd	r31, Y+2	; 0x02
    13b4:	81 e0       	ldi	r24, 0x01	; 1
    13b6:	82 8b       	std	Z+18, r24	; 0x12
#ifdef CONFIG_USE_HIGHEST_LOCKER
    mutex->prio = prio;
    13b8:	e9 81       	ldd	r30, Y+1	; 0x01
    13ba:	fa 81       	ldd	r31, Y+2	; 0x02
    13bc:	8b 81       	ldd	r24, Y+3	; 0x03
    13be:	81 8b       	std	Z+17, r24	; 0x11
#endif // CONFIG_USE_HIGHEST_LOCKER
}
    13c0:	0f 90       	pop	r0
    13c2:	0f 90       	pop	r0
    13c4:	0f 90       	pop	r0
    13c6:	cf 91       	pop	r28
    13c8:	df 91       	pop	r29
    13ca:	08 95       	ret

000013cc <_mutex_lock>:

// К моменту вызова захвачена блокировка mutex-а, запрещены прерывания
bool_t _mutex_lock( mutex_t * mutex )
{
    13cc:	df 93       	push	r29
    13ce:	cf 93       	push	r28
    13d0:	00 d0       	rcall	.+0      	; 0x13d2 <_mutex_lock+0x6>
    13d2:	00 d0       	rcall	.+0      	; 0x13d4 <_mutex_lock+0x8>
    13d4:	0f 92       	push	r0
    13d6:	cd b7       	in	r28, 0x3d	; 61
    13d8:	de b7       	in	r29, 0x3e	; 62
    13da:	9d 83       	std	Y+5, r25	; 0x05
    13dc:	8c 83       	std	Y+4, r24	; 0x04
    bool_t ret = mutex->free;
    13de:	ec 81       	ldd	r30, Y+4	; 0x04
    13e0:	fd 81       	ldd	r31, Y+5	; 0x05
    13e2:	82 89       	ldd	r24, Z+18	; 0x12
    13e4:	8b 83       	std	Y+3, r24	; 0x03
    proc_t * proc = current_proc();
    13e6:	0e 94 cc 00 	call	0x198	; 0x198 <current_proc>
    13ea:	9a 83       	std	Y+2, r25	; 0x02
    13ec:	89 83       	std	Y+1, r24	; 0x01
#ifdef CONFIG_MP
    spin_lock( &proc->lock );
#endif // CONFIG_MP
#ifdef CONFIG_USE_HIGHEST_LOCKER
    _proc_lres_inc( proc, mutex->prio );
    13ee:	ec 81       	ldd	r30, Y+4	; 0x04
    13f0:	fd 81       	ldd	r31, Y+5	; 0x05
    13f2:	21 89       	ldd	r18, Z+17	; 0x11
    13f4:	89 81       	ldd	r24, Y+1	; 0x01
    13f6:	9a 81       	ldd	r25, Y+2	; 0x02
    13f8:	62 2f       	mov	r22, r18
    13fa:	0e 94 fa 0c 	call	0x19f4	; 0x19f4 <_proc_lres_inc>
#else // CONFIG_USE_HIGHEST_LOCKER
    _proc_lres_inc( proc );
#endif // CONFIG_USE_HIGHEST_LOCKER
    if( ret )
    13fe:	8b 81       	ldd	r24, Y+3	; 0x03
    1400:	88 23       	and	r24, r24
    1402:	41 f0       	breq	.+16     	; 0x1414 <_mutex_lock+0x48>
    {
        mutex->free = (bool_t)0;
    1404:	ec 81       	ldd	r30, Y+4	; 0x04
    1406:	fd 81       	ldd	r31, Y+5	; 0x05
    1408:	12 8a       	std	Z+18, r1	; 0x12
#ifdef CONFIG_USE_HIGHEST_LOCKER
        // Меняем приоритет только здесь
        _proc_prio_control_running( proc );
    140a:	89 81       	ldd	r24, Y+1	; 0x01
    140c:	9a 81       	ldd	r25, Y+2	; 0x02
    140e:	0e 94 7d 0d 	call	0x1afa	; 0x1afa <_proc_prio_control_running>
    1412:	1b c0       	rjmp	.+54     	; 0x144a <_mutex_lock+0x7e>
#endif // CONFIG_USE_HIGHEST_LOCKER
    }
    else
    {
        proc->flags |= PROC_FLG_QUEUE;
    1414:	e9 81       	ldd	r30, Y+1	; 0x01
    1416:	fa 81       	ldd	r31, Y+2	; 0x02
    1418:	83 85       	ldd	r24, Z+11	; 0x0b
    141a:	88 60       	ori	r24, 0x08	; 8
    141c:	e9 81       	ldd	r30, Y+1	; 0x01
    141e:	fa 81       	ldd	r31, Y+2	; 0x02
    1420:	83 87       	std	Z+11, r24	; 0x0b
        proc->flags &= ~PROC_FLG_RUN;
    1422:	e9 81       	ldd	r30, Y+1	; 0x01
    1424:	fa 81       	ldd	r31, Y+2	; 0x02
    1426:	83 85       	ldd	r24, Z+11	; 0x0b
    1428:	8d 7f       	andi	r24, 0xFD	; 253
    142a:	e9 81       	ldd	r30, Y+1	; 0x01
    142c:	fa 81       	ldd	r31, Y+2	; 0x02
    142e:	83 87       	std	Z+11, r24	; 0x0b
        _proc_stop_( proc );
    1430:	89 81       	ldd	r24, Y+1	; 0x01
    1432:	9a 81       	ldd	r25, Y+2	; 0x02
    1434:	0e 94 b3 07 	call	0xf66	; 0xf66 <gitem_cut>
        gitem_insert( (gitem_t *)proc, (xlist_t *)mutex );
    1438:	89 81       	ldd	r24, Y+1	; 0x01
    143a:	9a 81       	ldd	r25, Y+2	; 0x02
    143c:	2c 81       	ldd	r18, Y+4	; 0x04
    143e:	3d 81       	ldd	r19, Y+5	; 0x05
    1440:	b9 01       	movw	r22, r18
    1442:	0e 94 56 06 	call	0xcac	; 0xcac <gitem_insert>
        // Нужна перепланировка
#ifdef CONFIG_MP
        resched( proc->core_id );
#else
        resched();
    1446:	0e 94 f7 00 	call	0x1ee	; 0x1ee <resched>
#endif // CONFIG_MP
    }
#ifdef CONFIG_MP
    spin_unlock( &proc->lock );
#endif // CONFIG_MP
    return ret;
    144a:	8b 81       	ldd	r24, Y+3	; 0x03
}
    144c:	0f 90       	pop	r0
    144e:	0f 90       	pop	r0
    1450:	0f 90       	pop	r0
    1452:	0f 90       	pop	r0
    1454:	0f 90       	pop	r0
    1456:	cf 91       	pop	r28
    1458:	df 91       	pop	r29
    145a:	08 95       	ret

0000145c <_mutex_try_lock>:

bool_t _mutex_try_lock( mutex_t * mutex )
{
    145c:	df 93       	push	r29
    145e:	cf 93       	push	r28
    1460:	00 d0       	rcall	.+0      	; 0x1462 <_mutex_try_lock+0x6>
    1462:	00 d0       	rcall	.+0      	; 0x1464 <_mutex_try_lock+0x8>
    1464:	0f 92       	push	r0
    1466:	cd b7       	in	r28, 0x3d	; 61
    1468:	de b7       	in	r29, 0x3e	; 62
    146a:	9d 83       	std	Y+5, r25	; 0x05
    146c:	8c 83       	std	Y+4, r24	; 0x04
    bool_t ret = mutex->free;
    146e:	ec 81       	ldd	r30, Y+4	; 0x04
    1470:	fd 81       	ldd	r31, Y+5	; 0x05
    1472:	82 89       	ldd	r24, Z+18	; 0x12
    1474:	8b 83       	std	Y+3, r24	; 0x03
    proc_t * proc = current_proc();
    1476:	0e 94 cc 00 	call	0x198	; 0x198 <current_proc>
    147a:	9a 83       	std	Y+2, r25	; 0x02
    147c:	89 83       	std	Y+1, r24	; 0x01
#ifdef CONFIG_MP
    spin_lock( &proc->lock );
#endif // CONFIG_MP
    if( ret )
    147e:	8b 81       	ldd	r24, Y+3	; 0x03
    1480:	88 23       	and	r24, r24
    1482:	79 f0       	breq	.+30     	; 0x14a2 <_mutex_try_lock+0x46>
    {
        mutex->free = (bool_t)0;
    1484:	ec 81       	ldd	r30, Y+4	; 0x04
    1486:	fd 81       	ldd	r31, Y+5	; 0x05
    1488:	12 8a       	std	Z+18, r1	; 0x12
#ifdef CONFIG_USE_HIGHEST_LOCKER
        _proc_lres_inc( proc, mutex->prio );
    148a:	ec 81       	ldd	r30, Y+4	; 0x04
    148c:	fd 81       	ldd	r31, Y+5	; 0x05
    148e:	21 89       	ldd	r18, Z+17	; 0x11
    1490:	89 81       	ldd	r24, Y+1	; 0x01
    1492:	9a 81       	ldd	r25, Y+2	; 0x02
    1494:	62 2f       	mov	r22, r18
    1496:	0e 94 fa 0c 	call	0x19f4	; 0x19f4 <_proc_lres_inc>
        _proc_prio_control_running( proc );
    149a:	89 81       	ldd	r24, Y+1	; 0x01
    149c:	9a 81       	ldd	r25, Y+2	; 0x02
    149e:	0e 94 7d 0d 	call	0x1afa	; 0x1afa <_proc_prio_control_running>
#endif // CONFIG_USE_HIGHEST_LOCKER
    }
#ifdef CONFIG_MP
    spin_unlock( &proc->lock );
#endif // CONFIG_MP
    return ret;
    14a2:	8b 81       	ldd	r24, Y+3	; 0x03
}
    14a4:	0f 90       	pop	r0
    14a6:	0f 90       	pop	r0
    14a8:	0f 90       	pop	r0
    14aa:	0f 90       	pop	r0
    14ac:	0f 90       	pop	r0
    14ae:	cf 91       	pop	r28
    14b0:	df 91       	pop	r29
    14b2:	08 95       	ret

000014b4 <_mutex_unlock>:

void _mutex_unlock( mutex_t *  mutex )
{
    14b4:	df 93       	push	r29
    14b6:	cf 93       	push	r28
    14b8:	00 d0       	rcall	.+0      	; 0x14ba <_mutex_unlock+0x6>
    14ba:	00 d0       	rcall	.+0      	; 0x14bc <_mutex_unlock+0x8>
    14bc:	cd b7       	in	r28, 0x3d	; 61
    14be:	de b7       	in	r29, 0x3e	; 62
    14c0:	9c 83       	std	Y+4, r25	; 0x04
    14c2:	8b 83       	std	Y+3, r24	; 0x03
    proc_t * proc = current_proc();
    14c4:	0e 94 cc 00 	call	0x198	; 0x198 <current_proc>
    14c8:	9a 83       	std	Y+2, r25	; 0x02
    14ca:	89 83       	std	Y+1, r24	; 0x01
#ifdef CONFIG_MP
    spin_lock( &proc->lock );
#endif // CONFIG_MP
#ifdef CONFIG_USE_HIGHEST_LOCKER

    _proc_lres_dec( proc, mutex->prio );
    14cc:	eb 81       	ldd	r30, Y+3	; 0x03
    14ce:	fc 81       	ldd	r31, Y+4	; 0x04
    14d0:	21 89       	ldd	r18, Z+17	; 0x11
    14d2:	89 81       	ldd	r24, Y+1	; 0x01
    14d4:	9a 81       	ldd	r25, Y+2	; 0x02
    14d6:	62 2f       	mov	r22, r18
    14d8:	0e 94 1b 0d 	call	0x1a36	; 0x1a36 <_proc_lres_dec>
    // Если проготовлен и готов к остановке - останавливаем
    if(  ( proc->flags & PROC_FLG_PRE_END ) && (!(proc->flags & PROC_FLG_HOLD))  )
    14dc:	e9 81       	ldd	r30, Y+1	; 0x01
    14de:	fa 81       	ldd	r31, Y+2	; 0x02
    14e0:	83 85       	ldd	r24, Z+11	; 0x0b
    14e2:	88 2f       	mov	r24, r24
    14e4:	90 e0       	ldi	r25, 0x00	; 0
    14e6:	80 72       	andi	r24, 0x20	; 32
    14e8:	90 70       	andi	r25, 0x00	; 0
    14ea:	00 97       	sbiw	r24, 0x00	; 0
    14ec:	a1 f0       	breq	.+40     	; 0x1516 <_mutex_unlock+0x62>
    14ee:	e9 81       	ldd	r30, Y+1	; 0x01
    14f0:	fa 81       	ldd	r31, Y+2	; 0x02
    14f2:	83 85       	ldd	r24, Z+11	; 0x0b
    14f4:	88 2f       	mov	r24, r24
    14f6:	90 e0       	ldi	r25, 0x00	; 0
    14f8:	84 70       	andi	r24, 0x04	; 4
    14fa:	90 70       	andi	r25, 0x00	; 0
    14fc:	00 97       	sbiw	r24, 0x00	; 0
    14fe:	59 f4       	brne	.+22     	; 0x1516 <_mutex_unlock+0x62>
    {
        _proc_stop_( proc );
    1500:	89 81       	ldd	r24, Y+1	; 0x01
    1502:	9a 81       	ldd	r25, Y+2	; 0x02
    1504:	0e 94 b3 07 	call	0xf66	; 0xf66 <gitem_cut>
        _proc_prio_control_stoped( proc );
    1508:	89 81       	ldd	r24, Y+1	; 0x01
    150a:	9a 81       	ldd	r25, Y+2	; 0x02
    150c:	0e 94 3c 0d 	call	0x1a78	; 0x1a78 <_proc_prio_control_stoped>
        // Нужна перепланировка, процесс остановили и не запустили обратно
#ifdef CONFIG_MP
        resched( proc->core_id );
#else
        resched();
    1510:	0e 94 f7 00 	call	0x1ee	; 0x1ee <resched>
    1514:	04 c0       	rjmp	.+8      	; 0x151e <_mutex_unlock+0x6a>
#endif // CONFIG_MP
    }
    // Не останавливаем - меняем проиритет на ходу
    else _proc_prio_control_running( proc );
    1516:	89 81       	ldd	r24, Y+1	; 0x01
    1518:	9a 81       	ldd	r25, Y+2	; 0x02
    151a:	0e 94 7d 0d 	call	0x1afa	; 0x1afa <_proc_prio_control_running>
#endif // CONFIG_USE_HIGHEST_LOCKER
#ifdef CONFIG_MP
    spin_unlock( &proc->lock );
#endif // CONFIG_MP
    // Обрабока самого мьютекса
    if( ((xlist_t *)mutex)->index == (index_t)0  )
    151e:	eb 81       	ldd	r30, Y+3	; 0x03
    1520:	fc 81       	ldd	r31, Y+4	; 0x04
    1522:	80 89       	ldd	r24, Z+16	; 0x10
    1524:	88 23       	and	r24, r24
    1526:	29 f4       	brne	.+10     	; 0x1532 <_mutex_unlock+0x7e>
    {
        // Список ожидающих пуст, выходим
        mutex->free = (bool_t)1;
    1528:	eb 81       	ldd	r30, Y+3	; 0x03
    152a:	fc 81       	ldd	r31, Y+4	; 0x04
    152c:	81 e0       	ldi	r24, 0x01	; 1
    152e:	82 8b       	std	Z+18, r24	; 0x12
    1530:	19 c0       	rjmp	.+50     	; 0x1564 <_mutex_unlock+0xb0>
        return;
    }
    // Список ожидающих не пуст, запускаем голову
    proc = (proc_t *)xlist_head((xlist_t *)mutex);
    1532:	8b 81       	ldd	r24, Y+3	; 0x03
    1534:	9c 81       	ldd	r25, Y+4	; 0x04
    1536:	0e 94 ce 10 	call	0x219c	; 0x219c <xlist_head>
    153a:	9a 83       	std	Y+2, r25	; 0x02
    153c:	89 83       	std	Y+1, r24	; 0x01
#ifdef CONFIG_MP
    spin_lock( &proc->lock );
#endif // CONFIG_MP
    // Сначала надо вырезать
    proc->flags &= ~PROC_FLG_QUEUE;
    153e:	e9 81       	ldd	r30, Y+1	; 0x01
    1540:	fa 81       	ldd	r31, Y+2	; 0x02
    1542:	83 85       	ldd	r24, Z+11	; 0x0b
    1544:	87 7f       	andi	r24, 0xF7	; 247
    1546:	e9 81       	ldd	r30, Y+1	; 0x01
    1548:	fa 81       	ldd	r31, Y+2	; 0x02
    154a:	83 87       	std	Z+11, r24	; 0x0b
    gitem_cut( (gitem_t *)proc );
    154c:	89 81       	ldd	r24, Y+1	; 0x01
    154e:	9a 81       	ldd	r25, Y+2	; 0x02
    1550:	0e 94 b3 07 	call	0xf66	; 0xf66 <gitem_cut>
#ifdef CONFIG_USE_HIGHEST_LOCKER
    // Меняем приоритет
    _proc_prio_control_stoped( proc );
    1554:	89 81       	ldd	r24, Y+1	; 0x01
    1556:	9a 81       	ldd	r25, Y+2	; 0x02
    1558:	0e 94 3c 0d 	call	0x1a78	; 0x1a78 <_proc_prio_control_stoped>
#endif // CONFIG_USE_HIGHEST_LOCKER
    _proc_run( proc );
    155c:	89 81       	ldd	r24, Y+1	; 0x01
    155e:	9a 81       	ldd	r25, Y+2	; 0x02
    1560:	0e 94 f4 0b 	call	0x17e8	; 0x17e8 <_proc_run>
#ifdef CONFIG_MP
    spin_unlock( &proc->lock );
#endif // CONFIG_MP
}
    1564:	0f 90       	pop	r0
    1566:	0f 90       	pop	r0
    1568:	0f 90       	pop	r0
    156a:	0f 90       	pop	r0
    156c:	cf 91       	pop	r28
    156e:	df 91       	pop	r29
    1570:	08 95       	ret

00001572 <pcounter_init>:
*                           http://www.0chan.ru/r/res/9996.html                          *
*                                                                                        *
*****************************************************************************************/
#include "../include/bugurt.h"
void pcounter_init(pcounter_t * pcounter)
{
    1572:	df 93       	push	r29
    1574:	cf 93       	push	r28
    1576:	00 d0       	rcall	.+0      	; 0x1578 <pcounter_init+0x6>
    1578:	0f 92       	push	r0
    157a:	cd b7       	in	r28, 0x3d	; 61
    157c:	de b7       	in	r29, 0x3e	; 62
    157e:	9b 83       	std	Y+3, r25	; 0x03
    1580:	8a 83       	std	Y+2, r24	; 0x02
    pcounter->index = (index_t)0;
    1582:	ea 81       	ldd	r30, Y+2	; 0x02
    1584:	fb 81       	ldd	r31, Y+3	; 0x03
    1586:	10 8a       	std	Z+16, r1	; 0x10
    for(prio_t p = 0; p < (index_t)BITS_IN_INDEX_T; p++)pcounter->counter[p] = (count_t)0;
    1588:	19 82       	std	Y+1, r1	; 0x01
    158a:	0f c0       	rjmp	.+30     	; 0x15aa <pcounter_init+0x38>
    158c:	89 81       	ldd	r24, Y+1	; 0x01
    158e:	88 2f       	mov	r24, r24
    1590:	90 e0       	ldi	r25, 0x00	; 0
    1592:	2a 81       	ldd	r18, Y+2	; 0x02
    1594:	3b 81       	ldd	r19, Y+3	; 0x03
    1596:	88 0f       	add	r24, r24
    1598:	99 1f       	adc	r25, r25
    159a:	f9 01       	movw	r30, r18
    159c:	e8 0f       	add	r30, r24
    159e:	f9 1f       	adc	r31, r25
    15a0:	11 82       	std	Z+1, r1	; 0x01
    15a2:	10 82       	st	Z, r1
    15a4:	89 81       	ldd	r24, Y+1	; 0x01
    15a6:	8f 5f       	subi	r24, 0xFF	; 255
    15a8:	89 83       	std	Y+1, r24	; 0x01
    15aa:	89 81       	ldd	r24, Y+1	; 0x01
    15ac:	88 30       	cpi	r24, 0x08	; 8
    15ae:	70 f3       	brcs	.-36     	; 0x158c <pcounter_init+0x1a>
}
    15b0:	0f 90       	pop	r0
    15b2:	0f 90       	pop	r0
    15b4:	0f 90       	pop	r0
    15b6:	cf 91       	pop	r28
    15b8:	df 91       	pop	r29
    15ba:	08 95       	ret

000015bc <pcounter_inc>:

void pcounter_inc(pcounter_t * pcounter, prio_t prio)
{
    15bc:	df 93       	push	r29
    15be:	cf 93       	push	r28
    15c0:	00 d0       	rcall	.+0      	; 0x15c2 <pcounter_inc+0x6>
    15c2:	0f 92       	push	r0
    15c4:	cd b7       	in	r28, 0x3d	; 61
    15c6:	de b7       	in	r29, 0x3e	; 62
    15c8:	9a 83       	std	Y+2, r25	; 0x02
    15ca:	89 83       	std	Y+1, r24	; 0x01
    15cc:	6b 83       	std	Y+3, r22	; 0x03
    pcounter->counter[prio]++;
    15ce:	8b 81       	ldd	r24, Y+3	; 0x03
    15d0:	68 2f       	mov	r22, r24
    15d2:	70 e0       	ldi	r23, 0x00	; 0
    15d4:	29 81       	ldd	r18, Y+1	; 0x01
    15d6:	3a 81       	ldd	r19, Y+2	; 0x02
    15d8:	cb 01       	movw	r24, r22
    15da:	88 0f       	add	r24, r24
    15dc:	99 1f       	adc	r25, r25
    15de:	f9 01       	movw	r30, r18
    15e0:	e8 0f       	add	r30, r24
    15e2:	f9 1f       	adc	r31, r25
    15e4:	80 81       	ld	r24, Z
    15e6:	91 81       	ldd	r25, Z+1	; 0x01
    15e8:	ac 01       	movw	r20, r24
    15ea:	4f 5f       	subi	r20, 0xFF	; 255
    15ec:	5f 4f       	sbci	r21, 0xFF	; 255
    15ee:	29 81       	ldd	r18, Y+1	; 0x01
    15f0:	3a 81       	ldd	r19, Y+2	; 0x02
    15f2:	cb 01       	movw	r24, r22
    15f4:	88 0f       	add	r24, r24
    15f6:	99 1f       	adc	r25, r25
    15f8:	f9 01       	movw	r30, r18
    15fa:	e8 0f       	add	r30, r24
    15fc:	f9 1f       	adc	r31, r25
    15fe:	51 83       	std	Z+1, r21	; 0x01
    1600:	40 83       	st	Z, r20
    pcounter->index |= ((index_t)1)<<prio;
    1602:	e9 81       	ldd	r30, Y+1	; 0x01
    1604:	fa 81       	ldd	r31, Y+2	; 0x02
    1606:	80 89       	ldd	r24, Z+16	; 0x10
    1608:	48 2f       	mov	r20, r24
    160a:	8b 81       	ldd	r24, Y+3	; 0x03
    160c:	28 2f       	mov	r18, r24
    160e:	30 e0       	ldi	r19, 0x00	; 0
    1610:	81 e0       	ldi	r24, 0x01	; 1
    1612:	90 e0       	ldi	r25, 0x00	; 0
    1614:	02 2e       	mov	r0, r18
    1616:	02 c0       	rjmp	.+4      	; 0x161c <pcounter_inc+0x60>
    1618:	88 0f       	add	r24, r24
    161a:	99 1f       	adc	r25, r25
    161c:	0a 94       	dec	r0
    161e:	e2 f7       	brpl	.-8      	; 0x1618 <pcounter_inc+0x5c>
    1620:	84 2b       	or	r24, r20
    1622:	e9 81       	ldd	r30, Y+1	; 0x01
    1624:	fa 81       	ldd	r31, Y+2	; 0x02
    1626:	80 8b       	std	Z+16, r24	; 0x10
}
    1628:	0f 90       	pop	r0
    162a:	0f 90       	pop	r0
    162c:	0f 90       	pop	r0
    162e:	cf 91       	pop	r28
    1630:	df 91       	pop	r29
    1632:	08 95       	ret

00001634 <pcounter_dec>:

index_t pcounter_dec(pcounter_t * pcounter, prio_t prio)
{
    1634:	df 93       	push	r29
    1636:	cf 93       	push	r28
    1638:	00 d0       	rcall	.+0      	; 0x163a <pcounter_dec+0x6>
    163a:	00 d0       	rcall	.+0      	; 0x163c <pcounter_dec+0x8>
    163c:	cd b7       	in	r28, 0x3d	; 61
    163e:	de b7       	in	r29, 0x3e	; 62
    1640:	9b 83       	std	Y+3, r25	; 0x03
    1642:	8a 83       	std	Y+2, r24	; 0x02
    1644:	6c 83       	std	Y+4, r22	; 0x04
    index_t mask = ((index_t)1)<<prio;
    1646:	8c 81       	ldd	r24, Y+4	; 0x04
    1648:	28 2f       	mov	r18, r24
    164a:	30 e0       	ldi	r19, 0x00	; 0
    164c:	81 e0       	ldi	r24, 0x01	; 1
    164e:	90 e0       	ldi	r25, 0x00	; 0
    1650:	02 c0       	rjmp	.+4      	; 0x1656 <pcounter_dec+0x22>
    1652:	88 0f       	add	r24, r24
    1654:	99 1f       	adc	r25, r25
    1656:	2a 95       	dec	r18
    1658:	e2 f7       	brpl	.-8      	; 0x1652 <pcounter_dec+0x1e>
    165a:	89 83       	std	Y+1, r24	; 0x01
    pcounter->counter[prio]--;
    165c:	8c 81       	ldd	r24, Y+4	; 0x04
    165e:	68 2f       	mov	r22, r24
    1660:	70 e0       	ldi	r23, 0x00	; 0
    1662:	2a 81       	ldd	r18, Y+2	; 0x02
    1664:	3b 81       	ldd	r19, Y+3	; 0x03
    1666:	cb 01       	movw	r24, r22
    1668:	88 0f       	add	r24, r24
    166a:	99 1f       	adc	r25, r25
    166c:	f9 01       	movw	r30, r18
    166e:	e8 0f       	add	r30, r24
    1670:	f9 1f       	adc	r31, r25
    1672:	80 81       	ld	r24, Z
    1674:	91 81       	ldd	r25, Z+1	; 0x01
    1676:	ac 01       	movw	r20, r24
    1678:	41 50       	subi	r20, 0x01	; 1
    167a:	50 40       	sbci	r21, 0x00	; 0
    167c:	2a 81       	ldd	r18, Y+2	; 0x02
    167e:	3b 81       	ldd	r19, Y+3	; 0x03
    1680:	cb 01       	movw	r24, r22
    1682:	88 0f       	add	r24, r24
    1684:	99 1f       	adc	r25, r25
    1686:	f9 01       	movw	r30, r18
    1688:	e8 0f       	add	r30, r24
    168a:	f9 1f       	adc	r31, r25
    168c:	51 83       	std	Z+1, r21	; 0x01
    168e:	40 83       	st	Z, r20
    if(pcounter->counter[prio] == (count_t)0)pcounter->index &= ~mask;
    1690:	8c 81       	ldd	r24, Y+4	; 0x04
    1692:	88 2f       	mov	r24, r24
    1694:	90 e0       	ldi	r25, 0x00	; 0
    1696:	2a 81       	ldd	r18, Y+2	; 0x02
    1698:	3b 81       	ldd	r19, Y+3	; 0x03
    169a:	88 0f       	add	r24, r24
    169c:	99 1f       	adc	r25, r25
    169e:	f9 01       	movw	r30, r18
    16a0:	e8 0f       	add	r30, r24
    16a2:	f9 1f       	adc	r31, r25
    16a4:	80 81       	ld	r24, Z
    16a6:	91 81       	ldd	r25, Z+1	; 0x01
    16a8:	00 97       	sbiw	r24, 0x00	; 0
    16aa:	51 f4       	brne	.+20     	; 0x16c0 <pcounter_dec+0x8c>
    16ac:	ea 81       	ldd	r30, Y+2	; 0x02
    16ae:	fb 81       	ldd	r31, Y+3	; 0x03
    16b0:	80 89       	ldd	r24, Z+16	; 0x10
    16b2:	98 2f       	mov	r25, r24
    16b4:	89 81       	ldd	r24, Y+1	; 0x01
    16b6:	80 95       	com	r24
    16b8:	89 23       	and	r24, r25
    16ba:	ea 81       	ldd	r30, Y+2	; 0x02
    16bc:	fb 81       	ldd	r31, Y+3	; 0x03
    16be:	80 8b       	std	Z+16, r24	; 0x10
    return pcounter->index & mask;
    16c0:	ea 81       	ldd	r30, Y+2	; 0x02
    16c2:	fb 81       	ldd	r31, Y+3	; 0x03
    16c4:	90 89       	ldd	r25, Z+16	; 0x10
    16c6:	89 81       	ldd	r24, Y+1	; 0x01
    16c8:	89 23       	and	r24, r25
}
    16ca:	0f 90       	pop	r0
    16cc:	0f 90       	pop	r0
    16ce:	0f 90       	pop	r0
    16d0:	0f 90       	pop	r0
    16d2:	cf 91       	pop	r28
    16d4:	df 91       	pop	r29
    16d6:	08 95       	ret

000016d8 <proc_init_isr>:
    bool_t is_rt // если true, значит процесс будет иметть поведение RT
#ifdef CONFIG_MP
    ,affinity_t affinity
#endif // CONFIG_MP
)
{
    16d8:	8f 92       	push	r8
    16da:	af 92       	push	r10
    16dc:	bf 92       	push	r11
    16de:	cf 92       	push	r12
    16e0:	ef 92       	push	r14
    16e2:	ff 92       	push	r15
    16e4:	0f 93       	push	r16
    16e6:	1f 93       	push	r17
    16e8:	df 93       	push	r29
    16ea:	cf 93       	push	r28
    16ec:	cd b7       	in	r28, 0x3d	; 61
    16ee:	de b7       	in	r29, 0x3e	; 62
    16f0:	61 97       	sbiw	r28, 0x11	; 17
    16f2:	0f b6       	in	r0, 0x3f	; 63
    16f4:	f8 94       	cli
    16f6:	de bf       	out	0x3e, r29	; 62
    16f8:	0f be       	out	0x3f, r0	; 63
    16fa:	cd bf       	out	0x3d, r28	; 61
    16fc:	9a 83       	std	Y+2, r25	; 0x02
    16fe:	89 83       	std	Y+1, r24	; 0x01
    1700:	7c 83       	std	Y+4, r23	; 0x04
    1702:	6b 83       	std	Y+3, r22	; 0x03
    1704:	5e 83       	std	Y+6, r21	; 0x06
    1706:	4d 83       	std	Y+5, r20	; 0x05
    1708:	38 87       	std	Y+8, r19	; 0x08
    170a:	2f 83       	std	Y+7, r18	; 0x07
    170c:	1a 87       	std	Y+10, r17	; 0x0a
    170e:	09 87       	std	Y+9, r16	; 0x09
    1710:	fc 86       	std	Y+12, r15	; 0x0c
    1712:	eb 86       	std	Y+11, r14	; 0x0b
    1714:	cd 86       	std	Y+13, r12	; 0x0d
    1716:	bf 86       	std	Y+15, r11	; 0x0f
    1718:	ae 86       	std	Y+14, r10	; 0x0e
    171a:	88 8a       	std	Y+16, r8	; 0x10
    gitem_init( (gitem_t *)proc, prio );
    171c:	89 81       	ldd	r24, Y+1	; 0x01
    171e:	9a 81       	ldd	r25, Y+2	; 0x02
    1720:	6d 85       	ldd	r22, Y+13	; 0x0d
    1722:	0e 94 30 06 	call	0xc60	; 0xc60 <gitem_init>
    proc->flags = ( is_rt )?PROC_FLG_RT:(flag_t)0;
    1726:	88 89       	ldd	r24, Y+16	; 0x10
    1728:	89 8b       	std	Y+17, r24	; 0x11
    172a:	89 89       	ldd	r24, Y+17	; 0x11
    172c:	88 23       	and	r24, r24
    172e:	11 f0       	breq	.+4      	; 0x1734 <proc_init_isr+0x5c>
    1730:	81 e0       	ldi	r24, 0x01	; 1
    1732:	89 8b       	std	Y+17, r24	; 0x11
    1734:	89 89       	ldd	r24, Y+17	; 0x11
    1736:	e9 81       	ldd	r30, Y+1	; 0x01
    1738:	fa 81       	ldd	r31, Y+2	; 0x02
    173a:	83 87       	std	Z+11, r24	; 0x0b
#ifdef CONFIG_USE_HIGHEST_LOCKER
    pcounter_init(&proc->lres);
    173c:	89 81       	ldd	r24, Y+1	; 0x01
    173e:	9a 81       	ldd	r25, Y+2	; 0x02
    1740:	0d 96       	adiw	r24, 0x0d	; 13
    1742:	0e 94 b9 0a 	call	0x1572	; 0x1572 <pcounter_init>
    proc->base_prio = prio;
    1746:	e9 81       	ldd	r30, Y+1	; 0x01
    1748:	fa 81       	ldd	r31, Y+2	; 0x02
    174a:	8d 85       	ldd	r24, Y+13	; 0x0d
    174c:	84 87       	std	Z+12, r24	; 0x0c
#else
    proc->lres = (count_t)0;
#endif
    proc->time_quant = time_quant;
    174e:	e9 81       	ldd	r30, Y+1	; 0x01
    1750:	fa 81       	ldd	r31, Y+2	; 0x02
    1752:	8e 85       	ldd	r24, Y+14	; 0x0e
    1754:	9f 85       	ldd	r25, Y+15	; 0x0f
    1756:	97 8f       	std	Z+31, r25	; 0x1f
    1758:	86 8f       	std	Z+30, r24	; 0x1e
    proc->timer = time_quant;
    175a:	e9 81       	ldd	r30, Y+1	; 0x01
    175c:	fa 81       	ldd	r31, Y+2	; 0x02
    175e:	8e 85       	ldd	r24, Y+14	; 0x0e
    1760:	9f 85       	ldd	r25, Y+15	; 0x0f
    1762:	91 a3       	std	Z+33, r25	; 0x21
    1764:	80 a3       	std	Z+32, r24	; 0x20
#ifdef CONFIG_MP
    proc->core_id = (core_id_t)0;
    proc->affinity = affinity;
#endif // CONFIG_MP
    proc->pmain = pmain;
    1766:	e9 81       	ldd	r30, Y+1	; 0x01
    1768:	fa 81       	ldd	r31, Y+2	; 0x02
    176a:	8b 81       	ldd	r24, Y+3	; 0x03
    176c:	9c 81       	ldd	r25, Y+4	; 0x04
    176e:	93 a3       	std	Z+35, r25	; 0x23
    1770:	82 a3       	std	Z+34, r24	; 0x22
    proc->sv_hook = sv_hook;
    1772:	e9 81       	ldd	r30, Y+1	; 0x01
    1774:	fa 81       	ldd	r31, Y+2	; 0x02
    1776:	8d 81       	ldd	r24, Y+5	; 0x05
    1778:	9e 81       	ldd	r25, Y+6	; 0x06
    177a:	95 a3       	std	Z+37, r25	; 0x25
    177c:	84 a3       	std	Z+36, r24	; 0x24
    proc->rs_hook = rs_hook;
    177e:	e9 81       	ldd	r30, Y+1	; 0x01
    1780:	fa 81       	ldd	r31, Y+2	; 0x02
    1782:	8f 81       	ldd	r24, Y+7	; 0x07
    1784:	98 85       	ldd	r25, Y+8	; 0x08
    1786:	97 a3       	std	Z+39, r25	; 0x27
    1788:	86 a3       	std	Z+38, r24	; 0x26
    proc->arg = arg;
    178a:	e9 81       	ldd	r30, Y+1	; 0x01
    178c:	fa 81       	ldd	r31, Y+2	; 0x02
    178e:	89 85       	ldd	r24, Y+9	; 0x09
    1790:	9a 85       	ldd	r25, Y+10	; 0x0a
    1792:	91 a7       	std	Z+41, r25	; 0x29
    1794:	80 a7       	std	Z+40, r24	; 0x28
    proc->sstart = sstart;
    1796:	e9 81       	ldd	r30, Y+1	; 0x01
    1798:	fa 81       	ldd	r31, Y+2	; 0x02
    179a:	8b 85       	ldd	r24, Y+11	; 0x0b
    179c:	9c 85       	ldd	r25, Y+12	; 0x0c
    179e:	93 a7       	std	Z+43, r25	; 0x2b
    17a0:	82 a7       	std	Z+42, r24	; 0x2a
    if( sstart )proc->spointer = proc_stack_init(sstart, (code_t)proc_run_wrapper, (void *)proc);
    17a2:	8b 85       	ldd	r24, Y+11	; 0x0b
    17a4:	9c 85       	ldd	r25, Y+12	; 0x0c
    17a6:	00 97       	sbiw	r24, 0x00	; 0
    17a8:	71 f0       	breq	.+28     	; 0x17c6 <proc_init_isr+0xee>
    17aa:	4c e3       	ldi	r20, 0x3C	; 60
    17ac:	53 e0       	ldi	r21, 0x03	; 3
    17ae:	8b 85       	ldd	r24, Y+11	; 0x0b
    17b0:	9c 85       	ldd	r25, Y+12	; 0x0c
    17b2:	29 81       	ldd	r18, Y+1	; 0x01
    17b4:	3a 81       	ldd	r19, Y+2	; 0x02
    17b6:	ba 01       	movw	r22, r20
    17b8:	a9 01       	movw	r20, r18
    17ba:	0e 94 d7 00 	call	0x1ae	; 0x1ae <proc_stack_init>
    17be:	e9 81       	ldd	r30, Y+1	; 0x01
    17c0:	fa 81       	ldd	r31, Y+2	; 0x02
    17c2:	95 a7       	std	Z+45, r25	; 0x2d
    17c4:	84 a7       	std	Z+44, r24	; 0x2c
}
    17c6:	61 96       	adiw	r28, 0x11	; 17
    17c8:	0f b6       	in	r0, 0x3f	; 63
    17ca:	f8 94       	cli
    17cc:	de bf       	out	0x3e, r29	; 62
    17ce:	0f be       	out	0x3f, r0	; 63
    17d0:	cd bf       	out	0x3d, r28	; 61
    17d2:	cf 91       	pop	r28
    17d4:	df 91       	pop	r29
    17d6:	1f 91       	pop	r17
    17d8:	0f 91       	pop	r16
    17da:	ff 90       	pop	r15
    17dc:	ef 90       	pop	r14
    17de:	cf 90       	pop	r12
    17e0:	bf 90       	pop	r11
    17e2:	af 90       	pop	r10
    17e4:	8f 90       	pop	r8
    17e6:	08 95       	ret

000017e8 <_proc_run>:
    spin_unlock( &proc_sched->lock );
}
#endif // CONFIG_MP

void _proc_run( proc_t * proc )
{
    17e8:	df 93       	push	r29
    17ea:	cf 93       	push	r28
    17ec:	00 d0       	rcall	.+0      	; 0x17ee <_proc_run+0x6>
    17ee:	cd b7       	in	r28, 0x3d	; 61
    17f0:	de b7       	in	r29, 0x3e	; 62
    17f2:	9a 83       	std	Y+2, r25	; 0x02
    17f4:	89 83       	std	Y+1, r24	; 0x01
    proc->flags |= PROC_FLG_RUN;
    17f6:	e9 81       	ldd	r30, Y+1	; 0x01
    17f8:	fa 81       	ldd	r31, Y+2	; 0x02
    17fa:	83 85       	ldd	r24, Z+11	; 0x0b
    17fc:	82 60       	ori	r24, 0x02	; 2
    17fe:	e9 81       	ldd	r30, Y+1	; 0x01
    1800:	fa 81       	ldd	r31, Y+2	; 0x02
    1802:	83 87       	std	Z+11, r24	; 0x0b
    spin_lock( &kernel.stat_lock );
    proc->core_id = sched_load_balancer( proc, (stat_t *)kernel.stat );
    stat_inc( proc, (stat_t *)kernel.stat+proc->core_id );
    spin_unlock( &kernel.stat_lock );
#endif
    _proc_run_( proc );
    1804:	89 81       	ldd	r24, Y+1	; 0x01
    1806:	9a 81       	ldd	r25, Y+2	; 0x02
    1808:	20 91 a4 01 	lds	r18, 0x01A4
    180c:	30 91 a5 01 	lds	r19, 0x01A5
    1810:	b9 01       	movw	r22, r18
    1812:	0e 94 56 06 	call	0xcac	; 0xcac <gitem_insert>
#ifdef CONFIG_MP
    resched( proc->core_id );
#else
    resched();
    1816:	0e 94 f7 00 	call	0x1ee	; 0x1ee <resched>
#endif // CONFIG_MP
}
    181a:	0f 90       	pop	r0
    181c:	0f 90       	pop	r0
    181e:	cf 91       	pop	r28
    1820:	df 91       	pop	r29
    1822:	08 95       	ret

00001824 <proc_run_isr>:
// Функция общего пользования - запуск процесса из обработчика прерывания, прерывания должны быть запрещены во время запуска
bool_t proc_run_isr(proc_t * proc)
{
    1824:	df 93       	push	r29
    1826:	cf 93       	push	r28
    1828:	00 d0       	rcall	.+0      	; 0x182a <proc_run_isr+0x6>
    182a:	0f 92       	push	r0
    182c:	cd b7       	in	r28, 0x3d	; 61
    182e:	de b7       	in	r29, 0x3e	; 62
    1830:	9b 83       	std	Y+3, r25	; 0x03
    1832:	8a 83       	std	Y+2, r24	; 0x02
    bool_t ret = (bool_t)1;
    1834:	81 e0       	ldi	r24, 0x01	; 1
    1836:	89 83       	std	Y+1, r24	; 0x01
#ifdef CONFIG_MP
    spin_lock( &proc->lock );
#endif // CONFIG_MP
    if( proc->flags & (PROC_FLG_RUN|PROC_FLG_QUEUE|PROC_FLG_WAIT|PROC_FLG_END|PROC_FLG_DEAD) )
    1838:	ea 81       	ldd	r30, Y+2	; 0x02
    183a:	fb 81       	ldd	r31, Y+3	; 0x03
    183c:	83 85       	ldd	r24, Z+11	; 0x0b
    183e:	88 2f       	mov	r24, r24
    1840:	90 e0       	ldi	r25, 0x00	; 0
    1842:	8a 7d       	andi	r24, 0xDA	; 218
    1844:	90 70       	andi	r25, 0x00	; 0
    1846:	00 97       	sbiw	r24, 0x00	; 0
    1848:	11 f0       	breq	.+4      	; 0x184e <proc_run_isr+0x2a>
    {
        ret = (bool_t)0;
    184a:	19 82       	std	Y+1, r1	; 0x01
    184c:	04 c0       	rjmp	.+8      	; 0x1856 <proc_run_isr+0x32>
        goto end;
    }
    _proc_run( proc );
    184e:	8a 81       	ldd	r24, Y+2	; 0x02
    1850:	9b 81       	ldd	r25, Y+3	; 0x03
    1852:	0e 94 f4 0b 	call	0x17e8	; 0x17e8 <_proc_run>
end:
#ifdef CONFIG_MP
    spin_unlock( &proc->lock );
#endif // CONFIG_MP
    return ret;
    1856:	89 81       	ldd	r24, Y+1	; 0x01
}
    1858:	0f 90       	pop	r0
    185a:	0f 90       	pop	r0
    185c:	0f 90       	pop	r0
    185e:	cf 91       	pop	r28
    1860:	df 91       	pop	r29
    1862:	08 95       	ret

00001864 <proc_restart_isr>:
// Перезепуск процесса из обработчика прерываний, прерывания должны быть запрещены
bool_t proc_restart_isr(proc_t * proc)
{
    1864:	df 93       	push	r29
    1866:	cf 93       	push	r28
    1868:	00 d0       	rcall	.+0      	; 0x186a <proc_restart_isr+0x6>
    186a:	0f 92       	push	r0
    186c:	cd b7       	in	r28, 0x3d	; 61
    186e:	de b7       	in	r29, 0x3e	; 62
    1870:	9b 83       	std	Y+3, r25	; 0x03
    1872:	8a 83       	std	Y+2, r24	; 0x02
    bool_t ret = (bool_t)1;
    1874:	81 e0       	ldi	r24, 0x01	; 1
    1876:	89 83       	std	Y+1, r24	; 0x01
#ifdef CONFIG_MP
    spin_lock( &proc->lock );
#endif
    if( proc->flags & (PROC_FLG_RUN|PROC_FLG_HOLD|PROC_FLG_QUEUE|PROC_FLG_WAIT|PROC_FLG_PRE_END|PROC_FLG_DEAD) )
    1878:	ea 81       	ldd	r30, Y+2	; 0x02
    187a:	fb 81       	ldd	r31, Y+3	; 0x03
    187c:	83 85       	ldd	r24, Z+11	; 0x0b
    187e:	88 2f       	mov	r24, r24
    1880:	90 e0       	ldi	r25, 0x00	; 0
    1882:	8e 7b       	andi	r24, 0xBE	; 190
    1884:	90 70       	andi	r25, 0x00	; 0
    1886:	00 97       	sbiw	r24, 0x00	; 0
    1888:	11 f0       	breq	.+4      	; 0x188e <proc_restart_isr+0x2a>
    {
        ret = (bool_t)0;
    188a:	19 82       	std	Y+1, r1	; 0x01
    188c:	2d c0       	rjmp	.+90     	; 0x18e8 <proc_restart_isr+0x84>
        goto end;
    }
    proc->flags = ( proc->flags & PROC_FLG_RT )?PROC_FLG_RT:(flag_t)0;
    188e:	ea 81       	ldd	r30, Y+2	; 0x02
    1890:	fb 81       	ldd	r31, Y+3	; 0x03
    1892:	83 85       	ldd	r24, Z+11	; 0x0b
    1894:	81 70       	andi	r24, 0x01	; 1
    1896:	ea 81       	ldd	r30, Y+2	; 0x02
    1898:	fb 81       	ldd	r31, Y+3	; 0x03
    189a:	83 87       	std	Z+11, r24	; 0x0b
#ifdef CONFIG_USE_HIGHEST_LOCKER
    pcounter_init(&proc->lres);
    189c:	8a 81       	ldd	r24, Y+2	; 0x02
    189e:	9b 81       	ldd	r25, Y+3	; 0x03
    18a0:	0d 96       	adiw	r24, 0x0d	; 13
    18a2:	0e 94 b9 0a 	call	0x1572	; 0x1572 <pcounter_init>
#else
    proc->lres = (count_t)0;
#endif
    proc->timer = proc->time_quant;
    18a6:	ea 81       	ldd	r30, Y+2	; 0x02
    18a8:	fb 81       	ldd	r31, Y+3	; 0x03
    18aa:	86 8d       	ldd	r24, Z+30	; 0x1e
    18ac:	97 8d       	ldd	r25, Z+31	; 0x1f
    18ae:	ea 81       	ldd	r30, Y+2	; 0x02
    18b0:	fb 81       	ldd	r31, Y+3	; 0x03
    18b2:	91 a3       	std	Z+33, r25	; 0x21
    18b4:	80 a3       	std	Z+32, r24	; 0x20

    if( proc->sstart )proc->spointer = proc_stack_init( proc->sstart, (code_t)proc_run_wrapper, (void *)proc );
    18b6:	ea 81       	ldd	r30, Y+2	; 0x02
    18b8:	fb 81       	ldd	r31, Y+3	; 0x03
    18ba:	82 a5       	ldd	r24, Z+42	; 0x2a
    18bc:	93 a5       	ldd	r25, Z+43	; 0x2b
    18be:	00 97       	sbiw	r24, 0x00	; 0
    18c0:	79 f0       	breq	.+30     	; 0x18e0 <proc_restart_isr+0x7c>
    18c2:	ea 81       	ldd	r30, Y+2	; 0x02
    18c4:	fb 81       	ldd	r31, Y+3	; 0x03
    18c6:	82 a5       	ldd	r24, Z+42	; 0x2a
    18c8:	93 a5       	ldd	r25, Z+43	; 0x2b
    18ca:	2c e3       	ldi	r18, 0x3C	; 60
    18cc:	33 e0       	ldi	r19, 0x03	; 3
    18ce:	4a 81       	ldd	r20, Y+2	; 0x02
    18d0:	5b 81       	ldd	r21, Y+3	; 0x03
    18d2:	b9 01       	movw	r22, r18
    18d4:	0e 94 d7 00 	call	0x1ae	; 0x1ae <proc_stack_init>
    18d8:	ea 81       	ldd	r30, Y+2	; 0x02
    18da:	fb 81       	ldd	r31, Y+3	; 0x03
    18dc:	95 a7       	std	Z+45, r25	; 0x2d
    18de:	84 a7       	std	Z+44, r24	; 0x2c
    _proc_run( proc );
    18e0:	8a 81       	ldd	r24, Y+2	; 0x02
    18e2:	9b 81       	ldd	r25, Y+3	; 0x03
    18e4:	0e 94 f4 0b 	call	0x17e8	; 0x17e8 <_proc_run>
end:
#ifdef CONFIG_MP
    spin_lock( &proc->lock );
#endif
    return ret;
    18e8:	89 81       	ldd	r24, Y+1	; 0x01
}
    18ea:	0f 90       	pop	r0
    18ec:	0f 90       	pop	r0
    18ee:	0f 90       	pop	r0
    18f0:	cf 91       	pop	r28
    18f2:	df 91       	pop	r29
    18f4:	08 95       	ret

000018f6 <_proc_stop>:
        spin_unlock( xlist_lock );
    }
}
#endif // CONFIG_MP
void _proc_stop(proc_t * proc)
{
    18f6:	df 93       	push	r29
    18f8:	cf 93       	push	r28
    18fa:	00 d0       	rcall	.+0      	; 0x18fc <_proc_stop+0x6>
    18fc:	cd b7       	in	r28, 0x3d	; 61
    18fe:	de b7       	in	r29, 0x3e	; 62
    1900:	9a 83       	std	Y+2, r25	; 0x02
    1902:	89 83       	std	Y+1, r24	; 0x01
    proc->flags &= ~PROC_FLG_RUN;
    1904:	e9 81       	ldd	r30, Y+1	; 0x01
    1906:	fa 81       	ldd	r31, Y+2	; 0x02
    1908:	83 85       	ldd	r24, Z+11	; 0x0b
    190a:	8d 7f       	andi	r24, 0xFD	; 253
    190c:	e9 81       	ldd	r30, Y+1	; 0x01
    190e:	fa 81       	ldd	r31, Y+2	; 0x02
    1910:	83 87       	std	Z+11, r24	; 0x0b
    _proc_stop_( proc );
    1912:	89 81       	ldd	r24, Y+1	; 0x01
    1914:	9a 81       	ldd	r25, Y+2	; 0x02
    1916:	0e 94 b3 07 	call	0xf66	; 0xf66 <gitem_cut>
#ifdef CONFIG_MP
    resched( proc->core_id );
#else
    resched();
    191a:	0e 94 f7 00 	call	0x1ee	; 0x1ee <resched>
#endif // CONFIG_MP
}
    191e:	0f 90       	pop	r0
    1920:	0f 90       	pop	r0
    1922:	cf 91       	pop	r28
    1924:	df 91       	pop	r29
    1926:	08 95       	ret

00001928 <proc_stop_isr>:
// Останов процесса из обработчика прерываний, прерывания должны быть запрещены
bool_t proc_stop_isr(proc_t * proc)
{
    1928:	df 93       	push	r29
    192a:	cf 93       	push	r28
    192c:	00 d0       	rcall	.+0      	; 0x192e <proc_stop_isr+0x6>
    192e:	0f 92       	push	r0
    1930:	cd b7       	in	r28, 0x3d	; 61
    1932:	de b7       	in	r29, 0x3e	; 62
    1934:	9b 83       	std	Y+3, r25	; 0x03
    1936:	8a 83       	std	Y+2, r24	; 0x02
    bool_t ret = (bool_t)0;
    1938:	19 82       	std	Y+1, r1	; 0x01
    spin_lock( &proc->lock );
#endif // CONFIG_MP
    //Проверка флагов
    //В случчае PROC_FLG_WAIT будем обрабатывать PROC_FLG_PRE_END на выходе из sig_wait.
    //В случае PROC_FLG_HOLD или PROC_FLG_QUEUE будем обрабатывать PROC_FLG_PRE_END на выходе из функции, освобождающей общий ресурс.
    if( proc->flags & (PROC_FLG_HOLD|PROC_FLG_QUEUE|PROC_FLG_WAIT) )proc->flags |= PROC_FLG_PRE_END;
    193a:	ea 81       	ldd	r30, Y+2	; 0x02
    193c:	fb 81       	ldd	r31, Y+3	; 0x03
    193e:	83 85       	ldd	r24, Z+11	; 0x0b
    1940:	88 2f       	mov	r24, r24
    1942:	90 e0       	ldi	r25, 0x00	; 0
    1944:	8c 71       	andi	r24, 0x1C	; 28
    1946:	90 70       	andi	r25, 0x00	; 0
    1948:	00 97       	sbiw	r24, 0x00	; 0
    194a:	41 f0       	breq	.+16     	; 0x195c <proc_stop_isr+0x34>
    194c:	ea 81       	ldd	r30, Y+2	; 0x02
    194e:	fb 81       	ldd	r31, Y+3	; 0x03
    1950:	83 85       	ldd	r24, Z+11	; 0x0b
    1952:	80 62       	ori	r24, 0x20	; 32
    1954:	ea 81       	ldd	r30, Y+2	; 0x02
    1956:	fb 81       	ldd	r31, Y+3	; 0x03
    1958:	83 87       	std	Z+11, r24	; 0x0b
    195a:	0f c0       	rjmp	.+30     	; 0x197a <proc_stop_isr+0x52>
    else if( proc->flags & PROC_FLG_RUN )
    195c:	ea 81       	ldd	r30, Y+2	; 0x02
    195e:	fb 81       	ldd	r31, Y+3	; 0x03
    1960:	83 85       	ldd	r24, Z+11	; 0x0b
    1962:	88 2f       	mov	r24, r24
    1964:	90 e0       	ldi	r25, 0x00	; 0
    1966:	82 70       	andi	r24, 0x02	; 2
    1968:	90 70       	andi	r25, 0x00	; 0
    196a:	00 97       	sbiw	r24, 0x00	; 0
    196c:	31 f0       	breq	.+12     	; 0x197a <proc_stop_isr+0x52>
    {
        _proc_stop( proc );
    196e:	8a 81       	ldd	r24, Y+2	; 0x02
    1970:	9b 81       	ldd	r25, Y+3	; 0x03
    1972:	0e 94 7b 0c 	call	0x18f6	; 0x18f6 <_proc_stop>
        ret = (bool_t)1;
    1976:	81 e0       	ldi	r24, 0x01	; 1
    1978:	89 83       	std	Y+1, r24	; 0x01
    }
#ifdef CONFIG_MP
    spin_unlock( &proc->lock );
#endif // CONFIG_MP
    return ret;
    197a:	89 81       	ldd	r24, Y+1	; 0x01
}
    197c:	0f 90       	pop	r0
    197e:	0f 90       	pop	r0
    1980:	0f 90       	pop	r0
    1982:	cf 91       	pop	r28
    1984:	df 91       	pop	r29
    1986:	08 95       	ret

00001988 <_proc_flag_stop_isr>:
    exit_crit_sec();
#endif
}

void _proc_flag_stop_isr( flag_t mask )
{
    1988:	df 93       	push	r29
    198a:	cf 93       	push	r28
    198c:	00 d0       	rcall	.+0      	; 0x198e <_proc_flag_stop_isr+0x6>
    198e:	0f 92       	push	r0
    1990:	cd b7       	in	r28, 0x3d	; 61
    1992:	de b7       	in	r29, 0x3e	; 62
    1994:	8b 83       	std	Y+3, r24	; 0x03
    proc_t * proc = current_proc();
    1996:	0e 94 cc 00 	call	0x198	; 0x198 <current_proc>
    199a:	9a 83       	std	Y+2, r25	; 0x02
    199c:	89 83       	std	Y+1, r24	; 0x01
#ifdef CONFIG_MP
    spin_lock( &proc->lock );
#endif //CONFIG_MP
    proc->flags &= mask;
    199e:	e9 81       	ldd	r30, Y+1	; 0x01
    19a0:	fa 81       	ldd	r31, Y+2	; 0x02
    19a2:	93 85       	ldd	r25, Z+11	; 0x0b
    19a4:	8b 81       	ldd	r24, Y+3	; 0x03
    19a6:	89 23       	and	r24, r25
    19a8:	e9 81       	ldd	r30, Y+1	; 0x01
    19aa:	fa 81       	ldd	r31, Y+2	; 0x02
    19ac:	83 87       	std	Z+11, r24	; 0x0b
    if(  ( proc->flags & PROC_FLG_PRE_END ) && (!(proc->flags & PROC_FLG_HOLD))  )
    19ae:	e9 81       	ldd	r30, Y+1	; 0x01
    19b0:	fa 81       	ldd	r31, Y+2	; 0x02
    19b2:	83 85       	ldd	r24, Z+11	; 0x0b
    19b4:	88 2f       	mov	r24, r24
    19b6:	90 e0       	ldi	r25, 0x00	; 0
    19b8:	80 72       	andi	r24, 0x20	; 32
    19ba:	90 70       	andi	r25, 0x00	; 0
    19bc:	00 97       	sbiw	r24, 0x00	; 0
    19be:	a1 f0       	breq	.+40     	; 0x19e8 <_proc_flag_stop_isr+0x60>
    19c0:	e9 81       	ldd	r30, Y+1	; 0x01
    19c2:	fa 81       	ldd	r31, Y+2	; 0x02
    19c4:	83 85       	ldd	r24, Z+11	; 0x0b
    19c6:	88 2f       	mov	r24, r24
    19c8:	90 e0       	ldi	r25, 0x00	; 0
    19ca:	84 70       	andi	r24, 0x04	; 4
    19cc:	90 70       	andi	r25, 0x00	; 0
    19ce:	00 97       	sbiw	r24, 0x00	; 0
    19d0:	59 f4       	brne	.+22     	; 0x19e8 <_proc_flag_stop_isr+0x60>
    {
        proc->flags &= ~PROC_FLG_PRE_END;
    19d2:	e9 81       	ldd	r30, Y+1	; 0x01
    19d4:	fa 81       	ldd	r31, Y+2	; 0x02
    19d6:	83 85       	ldd	r24, Z+11	; 0x0b
    19d8:	8f 7d       	andi	r24, 0xDF	; 223
    19da:	e9 81       	ldd	r30, Y+1	; 0x01
    19dc:	fa 81       	ldd	r31, Y+2	; 0x02
    19de:	83 87       	std	Z+11, r24	; 0x0b
        _proc_stop( proc );
    19e0:	89 81       	ldd	r24, Y+1	; 0x01
    19e2:	9a 81       	ldd	r25, Y+2	; 0x02
    19e4:	0e 94 7b 0c 	call	0x18f6	; 0x18f6 <_proc_stop>
    }
#ifdef CONFIG_MP
    spin_unlock( &proc->lock );
#endif //CONFIG_MP
}
    19e8:	0f 90       	pop	r0
    19ea:	0f 90       	pop	r0
    19ec:	0f 90       	pop	r0
    19ee:	cf 91       	pop	r28
    19f0:	df 91       	pop	r29
    19f2:	08 95       	ret

000019f4 <_proc_lres_inc>:
    proc_t * proc
#ifdef CONFIG_USE_HIGHEST_LOCKER
    ,prio_t prio
#endif
)
{
    19f4:	df 93       	push	r29
    19f6:	cf 93       	push	r28
    19f8:	00 d0       	rcall	.+0      	; 0x19fa <_proc_lres_inc+0x6>
    19fa:	0f 92       	push	r0
    19fc:	cd b7       	in	r28, 0x3d	; 61
    19fe:	de b7       	in	r29, 0x3e	; 62
    1a00:	9a 83       	std	Y+2, r25	; 0x02
    1a02:	89 83       	std	Y+1, r24	; 0x01
    1a04:	6b 83       	std	Y+3, r22	; 0x03
#ifdef CONFIG_USE_HIGHEST_LOCKER
    if( proc->lres.index == (index_t)0 )proc->flags |= PROC_FLG_HOLD;
    1a06:	e9 81       	ldd	r30, Y+1	; 0x01
    1a08:	fa 81       	ldd	r31, Y+2	; 0x02
    1a0a:	85 8d       	ldd	r24, Z+29	; 0x1d
    1a0c:	88 23       	and	r24, r24
    1a0e:	39 f4       	brne	.+14     	; 0x1a1e <_proc_lres_inc+0x2a>
    1a10:	e9 81       	ldd	r30, Y+1	; 0x01
    1a12:	fa 81       	ldd	r31, Y+2	; 0x02
    1a14:	83 85       	ldd	r24, Z+11	; 0x0b
    1a16:	84 60       	ori	r24, 0x04	; 4
    1a18:	e9 81       	ldd	r30, Y+1	; 0x01
    1a1a:	fa 81       	ldd	r31, Y+2	; 0x02
    1a1c:	83 87       	std	Z+11, r24	; 0x0b
    pcounter_inc( &proc->lres, prio );
    1a1e:	89 81       	ldd	r24, Y+1	; 0x01
    1a20:	9a 81       	ldd	r25, Y+2	; 0x02
    1a22:	0d 96       	adiw	r24, 0x0d	; 13
    1a24:	6b 81       	ldd	r22, Y+3	; 0x03
    1a26:	0e 94 de 0a 	call	0x15bc	; 0x15bc <pcounter_inc>
#else
    if( proc->lres == (count_t)0 )proc->flags |= PROC_FLG_HOLD;
    proc->lres++;
#endif
}
    1a2a:	0f 90       	pop	r0
    1a2c:	0f 90       	pop	r0
    1a2e:	0f 90       	pop	r0
    1a30:	cf 91       	pop	r28
    1a32:	df 91       	pop	r29
    1a34:	08 95       	ret

00001a36 <_proc_lres_dec>:
    proc_t * proc
#ifdef CONFIG_USE_HIGHEST_LOCKER
    ,prio_t prio
#endif
)
{
    1a36:	df 93       	push	r29
    1a38:	cf 93       	push	r28
    1a3a:	00 d0       	rcall	.+0      	; 0x1a3c <_proc_lres_dec+0x6>
    1a3c:	0f 92       	push	r0
    1a3e:	cd b7       	in	r28, 0x3d	; 61
    1a40:	de b7       	in	r29, 0x3e	; 62
    1a42:	9a 83       	std	Y+2, r25	; 0x02
    1a44:	89 83       	std	Y+1, r24	; 0x01
    1a46:	6b 83       	std	Y+3, r22	; 0x03
#ifdef CONFIG_USE_HIGHEST_LOCKER
    pcounter_dec( &proc->lres, prio );
    1a48:	89 81       	ldd	r24, Y+1	; 0x01
    1a4a:	9a 81       	ldd	r25, Y+2	; 0x02
    1a4c:	0d 96       	adiw	r24, 0x0d	; 13
    1a4e:	6b 81       	ldd	r22, Y+3	; 0x03
    1a50:	0e 94 1a 0b 	call	0x1634	; 0x1634 <pcounter_dec>
    if( proc->lres.index == (index_t)0 )proc->flags &= ~PROC_FLG_HOLD;
    1a54:	e9 81       	ldd	r30, Y+1	; 0x01
    1a56:	fa 81       	ldd	r31, Y+2	; 0x02
    1a58:	85 8d       	ldd	r24, Z+29	; 0x1d
    1a5a:	88 23       	and	r24, r24
    1a5c:	39 f4       	brne	.+14     	; 0x1a6c <_proc_lres_dec+0x36>
    1a5e:	e9 81       	ldd	r30, Y+1	; 0x01
    1a60:	fa 81       	ldd	r31, Y+2	; 0x02
    1a62:	83 85       	ldd	r24, Z+11	; 0x0b
    1a64:	8b 7f       	andi	r24, 0xFB	; 251
    1a66:	e9 81       	ldd	r30, Y+1	; 0x01
    1a68:	fa 81       	ldd	r31, Y+2	; 0x02
    1a6a:	83 87       	std	Z+11, r24	; 0x0b
#else
    if( proc->lres!= (count_t)0 )proc->lres--;
    if( proc->lres == (count_t)0 )proc->flags &= ~PROC_FLG_HOLD;
#endif
}
    1a6c:	0f 90       	pop	r0
    1a6e:	0f 90       	pop	r0
    1a70:	0f 90       	pop	r0
    1a72:	cf 91       	pop	r28
    1a74:	df 91       	pop	r29
    1a76:	08 95       	ret

00001a78 <_proc_prio_control_stoped>:
#ifdef CONFIG_USE_HIGHEST_LOCKER
// Будет использоваться в mutex-ах и т.п., процесс должен сам вызывать эту функцию, при этом он должен быть вырезан из списка выполняющихся.
void _proc_prio_control_stoped( proc_t * proc )
{
    1a78:	df 93       	push	r29
    1a7a:	cf 93       	push	r28
    1a7c:	cd b7       	in	r28, 0x3d	; 61
    1a7e:	de b7       	in	r29, 0x3e	; 62
    1a80:	27 97       	sbiw	r28, 0x07	; 7
    1a82:	0f b6       	in	r0, 0x3f	; 63
    1a84:	f8 94       	cli
    1a86:	de bf       	out	0x3e, r29	; 62
    1a88:	0f be       	out	0x3f, r0	; 63
    1a8a:	cd bf       	out	0x3d, r28	; 61
    1a8c:	9b 83       	std	Y+3, r25	; 0x03
    1a8e:	8a 83       	std	Y+2, r24	; 0x02
    if(proc->lres.index != (index_t)0)
    1a90:	ea 81       	ldd	r30, Y+2	; 0x02
    1a92:	fb 81       	ldd	r31, Y+3	; 0x03
    1a94:	85 8d       	ldd	r24, Z+29	; 0x1d
    1a96:	88 23       	and	r24, r24
    1a98:	e9 f0       	breq	.+58     	; 0x1ad4 <_proc_prio_control_stoped+0x5c>
    {
        prio_t locker_prio = index_search( proc->lres.index );
    1a9a:	ea 81       	ldd	r30, Y+2	; 0x02
    1a9c:	fb 81       	ldd	r31, Y+3	; 0x03
    1a9e:	85 8d       	ldd	r24, Z+29	; 0x1d
    1aa0:	0e 94 d7 08 	call	0x11ae	; 0x11ae <index_search>
    1aa4:	89 83       	std	Y+1, r24	; 0x01
        ((gitem_t *)proc)->group->prio = ( locker_prio < proc->base_prio )?locker_prio:proc->base_prio;
    1aa6:	ea 81       	ldd	r30, Y+2	; 0x02
    1aa8:	fb 81       	ldd	r31, Y+3	; 0x03
    1aaa:	84 81       	ldd	r24, Z+4	; 0x04
    1aac:	95 81       	ldd	r25, Z+5	; 0x05
    1aae:	9e 83       	std	Y+6, r25	; 0x06
    1ab0:	8d 83       	std	Y+5, r24	; 0x05
    1ab2:	ea 81       	ldd	r30, Y+2	; 0x02
    1ab4:	fb 81       	ldd	r31, Y+3	; 0x03
    1ab6:	84 85       	ldd	r24, Z+12	; 0x0c
    1ab8:	99 81       	ldd	r25, Y+1	; 0x01
    1aba:	9f 83       	std	Y+7, r25	; 0x07
    1abc:	8c 83       	std	Y+4, r24	; 0x04
    1abe:	ec 81       	ldd	r30, Y+4	; 0x04
    1ac0:	ff 81       	ldd	r31, Y+7	; 0x07
    1ac2:	fe 17       	cp	r31, r30
    1ac4:	10 f4       	brcc	.+4      	; 0x1aca <_proc_prio_control_stoped+0x52>
    1ac6:	8f 81       	ldd	r24, Y+7	; 0x07
    1ac8:	8c 83       	std	Y+4, r24	; 0x04
    1aca:	8c 81       	ldd	r24, Y+4	; 0x04
    1acc:	ed 81       	ldd	r30, Y+5	; 0x05
    1ace:	fe 81       	ldd	r31, Y+6	; 0x06
    1ad0:	82 83       	std	Z+2, r24	; 0x02
    1ad2:	0a c0       	rjmp	.+20     	; 0x1ae8 <_proc_prio_control_stoped+0x70>
    }
    else
    {
        ((gitem_t *)proc)->group->prio = proc->base_prio;
    1ad4:	ea 81       	ldd	r30, Y+2	; 0x02
    1ad6:	fb 81       	ldd	r31, Y+3	; 0x03
    1ad8:	a4 81       	ldd	r26, Z+4	; 0x04
    1ada:	b5 81       	ldd	r27, Z+5	; 0x05
    1adc:	ea 81       	ldd	r30, Y+2	; 0x02
    1ade:	fb 81       	ldd	r31, Y+3	; 0x03
    1ae0:	84 85       	ldd	r24, Z+12	; 0x0c
    1ae2:	12 96       	adiw	r26, 0x02	; 2
    1ae4:	8c 93       	st	X, r24
    1ae6:	12 97       	sbiw	r26, 0x02	; 2
    }
}
    1ae8:	27 96       	adiw	r28, 0x07	; 7
    1aea:	0f b6       	in	r0, 0x3f	; 63
    1aec:	f8 94       	cli
    1aee:	de bf       	out	0x3e, r29	; 62
    1af0:	0f be       	out	0x3f, r0	; 63
    1af2:	cd bf       	out	0x3d, r28	; 61
    1af4:	cf 91       	pop	r28
    1af6:	df 91       	pop	r29
    1af8:	08 95       	ret

00001afa <_proc_prio_control_running>:
void _proc_prio_control_running( proc_t * proc )
{
    1afa:	df 93       	push	r29
    1afc:	cf 93       	push	r28
    1afe:	00 d0       	rcall	.+0      	; 0x1b00 <_proc_prio_control_running+0x6>
    1b00:	00 d0       	rcall	.+0      	; 0x1b02 <_proc_prio_control_running+0x8>
    1b02:	00 d0       	rcall	.+0      	; 0x1b04 <_proc_prio_control_running+0xa>
    1b04:	cd b7       	in	r28, 0x3d	; 61
    1b06:	de b7       	in	r29, 0x3e	; 62
    1b08:	9c 83       	std	Y+4, r25	; 0x04
    1b0a:	8b 83       	std	Y+3, r24	; 0x03
    prio_t new_prio;
    if(proc->lres.index != (index_t)0)
    1b0c:	eb 81       	ldd	r30, Y+3	; 0x03
    1b0e:	fc 81       	ldd	r31, Y+4	; 0x04
    1b10:	85 8d       	ldd	r24, Z+29	; 0x1d
    1b12:	88 23       	and	r24, r24
    1b14:	a9 f0       	breq	.+42     	; 0x1b40 <_proc_prio_control_running+0x46>
    {
        prio_t locker_prio = index_search( proc->lres.index );
    1b16:	eb 81       	ldd	r30, Y+3	; 0x03
    1b18:	fc 81       	ldd	r31, Y+4	; 0x04
    1b1a:	85 8d       	ldd	r24, Z+29	; 0x1d
    1b1c:	0e 94 d7 08 	call	0x11ae	; 0x11ae <index_search>
    1b20:	89 83       	std	Y+1, r24	; 0x01
        new_prio = ( locker_prio < proc->base_prio )?locker_prio:proc->base_prio;
    1b22:	eb 81       	ldd	r30, Y+3	; 0x03
    1b24:	fc 81       	ldd	r31, Y+4	; 0x04
    1b26:	84 85       	ldd	r24, Z+12	; 0x0c
    1b28:	99 81       	ldd	r25, Y+1	; 0x01
    1b2a:	9e 83       	std	Y+6, r25	; 0x06
    1b2c:	8d 83       	std	Y+5, r24	; 0x05
    1b2e:	8d 81       	ldd	r24, Y+5	; 0x05
    1b30:	9e 81       	ldd	r25, Y+6	; 0x06
    1b32:	98 17       	cp	r25, r24
    1b34:	10 f4       	brcc	.+4      	; 0x1b3a <_proc_prio_control_running+0x40>
    1b36:	8e 81       	ldd	r24, Y+6	; 0x06
    1b38:	8d 83       	std	Y+5, r24	; 0x05
    1b3a:	9d 81       	ldd	r25, Y+5	; 0x05
    1b3c:	9a 83       	std	Y+2, r25	; 0x02
    1b3e:	04 c0       	rjmp	.+8      	; 0x1b48 <_proc_prio_control_running+0x4e>
    }
    else
    {
        new_prio = proc->base_prio;
    1b40:	eb 81       	ldd	r30, Y+3	; 0x03
    1b42:	fc 81       	ldd	r31, Y+4	; 0x04
    1b44:	84 85       	ldd	r24, Z+12	; 0x0c
    1b46:	8a 83       	std	Y+2, r24	; 0x02
    }
    if(((gitem_t *)proc)->group->prio != new_prio)
    1b48:	eb 81       	ldd	r30, Y+3	; 0x03
    1b4a:	fc 81       	ldd	r31, Y+4	; 0x04
    1b4c:	04 80       	ldd	r0, Z+4	; 0x04
    1b4e:	f5 81       	ldd	r31, Z+5	; 0x05
    1b50:	e0 2d       	mov	r30, r0
    1b52:	92 81       	ldd	r25, Z+2	; 0x02
    1b54:	8a 81       	ldd	r24, Y+2	; 0x02
    1b56:	98 17       	cp	r25, r24
    1b58:	b1 f0       	breq	.+44     	; 0x1b86 <_proc_prio_control_running+0x8c>
    {
        _proc_stop_( proc );
    1b5a:	8b 81       	ldd	r24, Y+3	; 0x03
    1b5c:	9c 81       	ldd	r25, Y+4	; 0x04
    1b5e:	0e 94 b3 07 	call	0xf66	; 0xf66 <gitem_cut>
        ((gitem_t *)proc)->group->prio = new_prio;
    1b62:	eb 81       	ldd	r30, Y+3	; 0x03
    1b64:	fc 81       	ldd	r31, Y+4	; 0x04
    1b66:	04 80       	ldd	r0, Z+4	; 0x04
    1b68:	f5 81       	ldd	r31, Z+5	; 0x05
    1b6a:	e0 2d       	mov	r30, r0
    1b6c:	8a 81       	ldd	r24, Y+2	; 0x02
    1b6e:	82 83       	std	Z+2, r24	; 0x02
#ifdef CONFIG_MP
        spin_lock( &kernel.stat_lock );
        stat_inc( proc, (stat_t *)kernel.stat+proc->core_id );
        spin_unlock( &kernel.stat_lock );
#endif
        _proc_run_( proc );
    1b70:	8b 81       	ldd	r24, Y+3	; 0x03
    1b72:	9c 81       	ldd	r25, Y+4	; 0x04
    1b74:	20 91 a4 01 	lds	r18, 0x01A4
    1b78:	30 91 a5 01 	lds	r19, 0x01A5
    1b7c:	b9 01       	movw	r22, r18
    1b7e:	0e 94 56 06 	call	0xcac	; 0xcac <gitem_insert>
#ifdef CONFIG_MP
        resched(proc->core_id);
#else
        resched();
    1b82:	0e 94 f7 00 	call	0x1ee	; 0x1ee <resched>
#endif
    }
}
    1b86:	26 96       	adiw	r28, 0x06	; 6
    1b88:	0f b6       	in	r0, 0x3f	; 63
    1b8a:	f8 94       	cli
    1b8c:	de bf       	out	0x3e, r29	; 62
    1b8e:	0f be       	out	0x3f, r0	; 63
    1b90:	cd bf       	out	0x3d, r28	; 61
    1b92:	cf 91       	pop	r28
    1b94:	df 91       	pop	r29
    1b96:	08 95       	ret

00001b98 <sched_init>:
*****************************************************************************************/
#include "../include/bugurt.h"
///========================================================================================
// Инициация
void sched_init(sched_t * sched, proc_t * idle)
{
    1b98:	df 93       	push	r29
    1b9a:	cf 93       	push	r28
    1b9c:	00 d0       	rcall	.+0      	; 0x1b9e <sched_init+0x6>
    1b9e:	00 d0       	rcall	.+0      	; 0x1ba0 <sched_init+0x8>
    1ba0:	cd b7       	in	r28, 0x3d	; 61
    1ba2:	de b7       	in	r29, 0x3e	; 62
    1ba4:	9a 83       	std	Y+2, r25	; 0x02
    1ba6:	89 83       	std	Y+1, r24	; 0x01
    1ba8:	7c 83       	std	Y+4, r23	; 0x04
    1baa:	6b 83       	std	Y+3, r22	; 0x03
#ifdef CONFIG_MP
    lock_t * sched_lock = &sched->lock;
    spin_init( sched_lock );
    spin_lock( sched_lock );
#endif // CONFIG_MP
    sched->ready = (xlist_t *)sched->plst;
    1bac:	89 81       	ldd	r24, Y+1	; 0x01
    1bae:	9a 81       	ldd	r25, Y+2	; 0x02
    1bb0:	06 96       	adiw	r24, 0x06	; 6
    1bb2:	e9 81       	ldd	r30, Y+1	; 0x01
    1bb4:	fa 81       	ldd	r31, Y+2	; 0x02
    1bb6:	93 83       	std	Z+3, r25	; 0x03
    1bb8:	82 83       	std	Z+2, r24	; 0x02
    xlist_init( sched->ready );
    1bba:	e9 81       	ldd	r30, Y+1	; 0x01
    1bbc:	fa 81       	ldd	r31, Y+2	; 0x02
    1bbe:	82 81       	ldd	r24, Z+2	; 0x02
    1bc0:	93 81       	ldd	r25, Z+3	; 0x03
    1bc2:	0e 94 a4 10 	call	0x2148	; 0x2148 <xlist_init>
    sched->expired = (xlist_t *)sched->plst + 1;
    1bc6:	89 81       	ldd	r24, Y+1	; 0x01
    1bc8:	9a 81       	ldd	r25, Y+2	; 0x02
    1bca:	47 96       	adiw	r24, 0x17	; 23
    1bcc:	e9 81       	ldd	r30, Y+1	; 0x01
    1bce:	fa 81       	ldd	r31, Y+2	; 0x02
    1bd0:	95 83       	std	Z+5, r25	; 0x05
    1bd2:	84 83       	std	Z+4, r24	; 0x04
    xlist_init( sched->expired );
    1bd4:	e9 81       	ldd	r30, Y+1	; 0x01
    1bd6:	fa 81       	ldd	r31, Y+2	; 0x02
    1bd8:	84 81       	ldd	r24, Z+4	; 0x04
    1bda:	95 81       	ldd	r25, Z+5	; 0x05
    1bdc:	0e 94 a4 10 	call	0x2148	; 0x2148 <xlist_init>
    gitem_insert( (gitem_t *)idle, sched->ready );
    1be0:	8b 81       	ldd	r24, Y+3	; 0x03
    1be2:	9c 81       	ldd	r25, Y+4	; 0x04
    1be4:	e9 81       	ldd	r30, Y+1	; 0x01
    1be6:	fa 81       	ldd	r31, Y+2	; 0x02
    1be8:	22 81       	ldd	r18, Z+2	; 0x02
    1bea:	33 81       	ldd	r19, Z+3	; 0x03
    1bec:	b9 01       	movw	r22, r18
    1bee:	0e 94 56 06 	call	0xcac	; 0xcac <gitem_insert>
    sched->current_proc = idle;
    1bf2:	e9 81       	ldd	r30, Y+1	; 0x01
    1bf4:	fa 81       	ldd	r31, Y+2	; 0x02
    1bf6:	8b 81       	ldd	r24, Y+3	; 0x03
    1bf8:	9c 81       	ldd	r25, Y+4	; 0x04
    1bfa:	91 83       	std	Z+1, r25	; 0x01
    1bfc:	80 83       	st	Z, r24
    sched->nested_crit_sec = (count_t)0;//вообще это выполняется при запрещенных прерываниях, но не известно, на этом ли процессоре
    1bfe:	e9 81       	ldd	r30, Y+1	; 0x01
    1c00:	fa 81       	ldd	r31, Y+2	; 0x02
    1c02:	11 a6       	std	Z+41, r1	; 0x29
    1c04:	10 a6       	std	Z+40, r1	; 0x28
#ifdef CONFIG_MP
    spin_unlock( sched_lock );
    stat_inc( idle, (stat_t *)kernel.stat + idle->core_id );
#endif // CONFIG_MP
}
    1c06:	0f 90       	pop	r0
    1c08:	0f 90       	pop	r0
    1c0a:	0f 90       	pop	r0
    1c0c:	0f 90       	pop	r0
    1c0e:	cf 91       	pop	r28
    1c10:	df 91       	pop	r29
    1c12:	08 95       	ret

00001c14 <_sched_list_switch>:
static void _sched_list_switch( sched_t * sched )
{
    1c14:	df 93       	push	r29
    1c16:	cf 93       	push	r28
    1c18:	00 d0       	rcall	.+0      	; 0x1c1a <_sched_list_switch+0x6>
    1c1a:	00 d0       	rcall	.+0      	; 0x1c1c <_sched_list_switch+0x8>
    1c1c:	cd b7       	in	r28, 0x3d	; 61
    1c1e:	de b7       	in	r29, 0x3e	; 62
    1c20:	9c 83       	std	Y+4, r25	; 0x04
    1c22:	8b 83       	std	Y+3, r24	; 0x03
    // Список ready опустел, переключаем списки
    if( sched->ready->index == (index_t)0 )
    1c24:	eb 81       	ldd	r30, Y+3	; 0x03
    1c26:	fc 81       	ldd	r31, Y+4	; 0x04
    1c28:	02 80       	ldd	r0, Z+2	; 0x02
    1c2a:	f3 81       	ldd	r31, Z+3	; 0x03
    1c2c:	e0 2d       	mov	r30, r0
    1c2e:	80 89       	ldd	r24, Z+16	; 0x10
    1c30:	88 23       	and	r24, r24
    1c32:	a1 f4       	brne	.+40     	; 0x1c5c <_sched_list_switch+0x48>
    {
        xlist_t * buf = sched->ready;
    1c34:	eb 81       	ldd	r30, Y+3	; 0x03
    1c36:	fc 81       	ldd	r31, Y+4	; 0x04
    1c38:	82 81       	ldd	r24, Z+2	; 0x02
    1c3a:	93 81       	ldd	r25, Z+3	; 0x03
    1c3c:	9a 83       	std	Y+2, r25	; 0x02
    1c3e:	89 83       	std	Y+1, r24	; 0x01
        sched->ready = sched->expired;
    1c40:	eb 81       	ldd	r30, Y+3	; 0x03
    1c42:	fc 81       	ldd	r31, Y+4	; 0x04
    1c44:	84 81       	ldd	r24, Z+4	; 0x04
    1c46:	95 81       	ldd	r25, Z+5	; 0x05
    1c48:	eb 81       	ldd	r30, Y+3	; 0x03
    1c4a:	fc 81       	ldd	r31, Y+4	; 0x04
    1c4c:	93 83       	std	Z+3, r25	; 0x03
    1c4e:	82 83       	std	Z+2, r24	; 0x02
        sched->expired = buf;
    1c50:	eb 81       	ldd	r30, Y+3	; 0x03
    1c52:	fc 81       	ldd	r31, Y+4	; 0x04
    1c54:	89 81       	ldd	r24, Y+1	; 0x01
    1c56:	9a 81       	ldd	r25, Y+2	; 0x02
    1c58:	95 83       	std	Z+5, r25	; 0x05
    1c5a:	84 83       	std	Z+4, r24	; 0x04
    }
}
    1c5c:	0f 90       	pop	r0
    1c5e:	0f 90       	pop	r0
    1c60:	0f 90       	pop	r0
    1c62:	0f 90       	pop	r0
    1c64:	cf 91       	pop	r28
    1c66:	df 91       	pop	r29
    1c68:	08 95       	ret

00001c6a <sched_schedule>:
2) В качестве аргумента передаем только тот объект, который управляет процессами
на исполняющем функции процессоре.
******************************************************************************************/
// Функция планирования, переключает процессы в обработчике системмного таймера
stack_t * sched_schedule( stack_t * current_sp )
{
    1c6a:	df 93       	push	r29
    1c6c:	cf 93       	push	r28
    1c6e:	cd b7       	in	r28, 0x3d	; 61
    1c70:	de b7       	in	r29, 0x3e	; 62
    1c72:	27 97       	sbiw	r28, 0x07	; 7
    1c74:	0f b6       	in	r0, 0x3f	; 63
    1c76:	f8 94       	cli
    1c78:	de bf       	out	0x3e, r29	; 62
    1c7a:	0f be       	out	0x3f, r0	; 63
    1c7c:	cd bf       	out	0x3d, r28	; 61
    1c7e:	9f 83       	std	Y+7, r25	; 0x07
    1c80:	8e 83       	std	Y+6, r24	; 0x06
#ifdef CONFIG_MP
    sched_t * sched = (sched_t *)kernel.sched + current_core();
#else
    sched_t * sched = (sched_t *)&kernel.sched;
    1c82:	82 ea       	ldi	r24, 0xA2	; 162
    1c84:	91 e0       	ldi	r25, 0x01	; 1
    1c86:	9d 83       	std	Y+5, r25	; 0x05
    1c88:	8c 83       	std	Y+4, r24	; 0x04
#endif // CONFIG_MP
    // Меняем только с локального процессора, блокировку sched->lock можно не захватывать!
    proc_t * current_proc = sched->current_proc;
    1c8a:	ec 81       	ldd	r30, Y+4	; 0x04
    1c8c:	fd 81       	ldd	r31, Y+5	; 0x05
    1c8e:	80 81       	ld	r24, Z
    1c90:	91 81       	ldd	r25, Z+1	; 0x01
    1c92:	9b 83       	std	Y+3, r25	; 0x03
    1c94:	8a 83       	std	Y+2, r24	; 0x02
#ifdef CONFIG_MP
    // А вот эту блокировку обязательно надо захватить!
    spin_lock( &current_proc->lock );
#endif // CONFIG_MP
    // Сохранение указателя стека
    current_proc->spointer = current_sp;
    1c96:	ea 81       	ldd	r30, Y+2	; 0x02
    1c98:	fb 81       	ldd	r31, Y+3	; 0x03
    1c9a:	8e 81       	ldd	r24, Y+6	; 0x06
    1c9c:	9f 81       	ldd	r25, Y+7	; 0x07
    1c9e:	95 a7       	std	Z+45, r25	; 0x2d
    1ca0:	84 a7       	std	Z+44, r24	; 0x2c
    // Хук "сохранение контекста"
    if( current_proc->sv_hook )current_proc->sv_hook( current_proc->arg );
    1ca2:	ea 81       	ldd	r30, Y+2	; 0x02
    1ca4:	fb 81       	ldd	r31, Y+3	; 0x03
    1ca6:	84 a1       	ldd	r24, Z+36	; 0x24
    1ca8:	95 a1       	ldd	r25, Z+37	; 0x25
    1caa:	00 97       	sbiw	r24, 0x00	; 0
    1cac:	51 f0       	breq	.+20     	; 0x1cc2 <sched_schedule+0x58>
    1cae:	ea 81       	ldd	r30, Y+2	; 0x02
    1cb0:	fb 81       	ldd	r31, Y+3	; 0x03
    1cb2:	24 a1       	ldd	r18, Z+36	; 0x24
    1cb4:	35 a1       	ldd	r19, Z+37	; 0x25
    1cb6:	ea 81       	ldd	r30, Y+2	; 0x02
    1cb8:	fb 81       	ldd	r31, Y+3	; 0x03
    1cba:	80 a5       	ldd	r24, Z+40	; 0x28
    1cbc:	91 a5       	ldd	r25, Z+41	; 0x29
    1cbe:	f9 01       	movw	r30, r18
    1cc0:	09 95       	icall
    // Проверяем, что процесс находится в списке ready
    if( (xlist_t *)((gitem_t *)current_proc)->group->link == sched->ready )
    1cc2:	ea 81       	ldd	r30, Y+2	; 0x02
    1cc4:	fb 81       	ldd	r31, Y+3	; 0x03
    1cc6:	04 80       	ldd	r0, Z+4	; 0x04
    1cc8:	f5 81       	ldd	r31, Z+5	; 0x05
    1cca:	e0 2d       	mov	r30, r0
    1ccc:	80 81       	ld	r24, Z
    1cce:	91 81       	ldd	r25, Z+1	; 0x01
    1cd0:	9c 01       	movw	r18, r24
    1cd2:	ec 81       	ldd	r30, Y+4	; 0x04
    1cd4:	fd 81       	ldd	r31, Y+5	; 0x05
    1cd6:	82 81       	ldd	r24, Z+2	; 0x02
    1cd8:	93 81       	ldd	r25, Z+3	; 0x03
    1cda:	28 17       	cp	r18, r24
    1cdc:	39 07       	cpc	r19, r25
    1cde:	09 f0       	breq	.+2      	; 0x1ce2 <sched_schedule+0x78>
    1ce0:	4d c0       	rjmp	.+154    	; 0x1d7c <sched_schedule+0x112>
    {
        // Переключаем cписок на следующий за текущим процесс
#ifdef CONFIG_MP
        spin_lock( &sched->lock );
#endif // CONFIG_MP
        xlist_switch( sched->ready, ((gitem_t *)current_proc)->group->prio );
    1ce2:	ec 81       	ldd	r30, Y+4	; 0x04
    1ce4:	fd 81       	ldd	r31, Y+5	; 0x05
    1ce6:	82 81       	ldd	r24, Z+2	; 0x02
    1ce8:	93 81       	ldd	r25, Z+3	; 0x03
    1cea:	ea 81       	ldd	r30, Y+2	; 0x02
    1cec:	fb 81       	ldd	r31, Y+3	; 0x03
    1cee:	04 80       	ldd	r0, Z+4	; 0x04
    1cf0:	f5 81       	ldd	r31, Z+5	; 0x05
    1cf2:	e0 2d       	mov	r30, r0
    1cf4:	22 81       	ldd	r18, Z+2	; 0x02
    1cf6:	62 2f       	mov	r22, r18
    1cf8:	0e 94 fa 10 	call	0x21f4	; 0x21f4 <xlist_switch>
#ifdef CONFIG_MP
        spin_unlock( &sched->lock );
#endif // CONFIG_MP
        //Проверяем, не истек ли квант времени процесса
        if( current_proc->timer > (timer_t)1 )current_proc->timer--;// Не истек, уменьшаем таймер
    1cfc:	ea 81       	ldd	r30, Y+2	; 0x02
    1cfe:	fb 81       	ldd	r31, Y+3	; 0x03
    1d00:	80 a1       	ldd	r24, Z+32	; 0x20
    1d02:	91 a1       	ldd	r25, Z+33	; 0x21
    1d04:	82 30       	cpi	r24, 0x02	; 2
    1d06:	91 05       	cpc	r25, r1
    1d08:	50 f0       	brcs	.+20     	; 0x1d1e <sched_schedule+0xb4>
    1d0a:	ea 81       	ldd	r30, Y+2	; 0x02
    1d0c:	fb 81       	ldd	r31, Y+3	; 0x03
    1d0e:	80 a1       	ldd	r24, Z+32	; 0x20
    1d10:	91 a1       	ldd	r25, Z+33	; 0x21
    1d12:	01 97       	sbiw	r24, 0x01	; 1
    1d14:	ea 81       	ldd	r30, Y+2	; 0x02
    1d16:	fb 81       	ldd	r31, Y+3	; 0x03
    1d18:	91 a3       	std	Z+33, r25	; 0x21
    1d1a:	80 a3       	std	Z+32, r24	; 0x20
    1d1c:	2f c0       	rjmp	.+94     	; 0x1d7c <sched_schedule+0x112>
        {
            // Истек, вырезаем процесс из списка
#ifdef CONFIG_MP
            spin_lock( &sched->lock );
#endif // CONFIG_MP
            gitem_fast_cut( (gitem_t *)current_proc );
    1d1e:	8a 81       	ldd	r24, Y+2	; 0x02
    1d20:	9b 81       	ldd	r25, Y+3	; 0x03
    1d22:	0e 94 2d 07 	call	0xe5a	; 0xe5a <gitem_fast_cut>
            // Обновили статистику после удаления процесса из списка ready
            stat_dec( current_proc, (stat_t *)kernel.stat + current_proc->core_id );
#endif // CONFIG_USE_ALB
#endif // CONFIG_MP
            // А что за процесс собственно?
            flag_t flags = current_proc->flags;
    1d26:	ea 81       	ldd	r30, Y+2	; 0x02
    1d28:	fb 81       	ldd	r31, Y+3	; 0x03
    1d2a:	83 85       	ldd	r24, Z+11	; 0x0b
    1d2c:	89 83       	std	Y+1, r24	; 0x01
            if(
                (!(flags & PROC_FLG_RT))
    1d2e:	89 81       	ldd	r24, Y+1	; 0x01
    1d30:	88 2f       	mov	r24, r24
    1d32:	90 e0       	ldi	r25, 0x00	; 0
    1d34:	81 70       	andi	r24, 0x01	; 1
    1d36:	90 70       	andi	r25, 0x00	; 0
            stat_dec( current_proc, (stat_t *)kernel.stat + current_proc->core_id );
#endif // CONFIG_USE_ALB
#endif // CONFIG_MP
            // А что за процесс собственно?
            flag_t flags = current_proc->flags;
            if(
    1d38:	00 97       	sbiw	r24, 0x00	; 0
    1d3a:	91 f4       	brne	.+36     	; 0x1d60 <sched_schedule+0xf6>
                ||(flags & PROC_FLG_HOLD)
#endif // CONFIG_HARD_RT
            )
            {
                //Процесс общего назначения, либо он удерживает общий ресурс, сбрасываем таймер и переносим в очередь expired
                current_proc->timer = current_proc->time_quant;
    1d3c:	ea 81       	ldd	r30, Y+2	; 0x02
    1d3e:	fb 81       	ldd	r31, Y+3	; 0x03
    1d40:	86 8d       	ldd	r24, Z+30	; 0x1e
    1d42:	97 8d       	ldd	r25, Z+31	; 0x1f
    1d44:	ea 81       	ldd	r30, Y+2	; 0x02
    1d46:	fb 81       	ldd	r31, Y+3	; 0x03
    1d48:	91 a3       	std	Z+33, r25	; 0x21
    1d4a:	80 a3       	std	Z+32, r24	; 0x20
#else // CONFIG_MP CONFIG_USE_ALB
                // Тупо переносим процесс в список expired
#ifdef CONFIG_MP
                spin_lock( &sched->lock );
#endif // CONFIG_MP
                gitem_insert( (gitem_t *)current_proc, sched->expired );
    1d4c:	8a 81       	ldd	r24, Y+2	; 0x02
    1d4e:	9b 81       	ldd	r25, Y+3	; 0x03
    1d50:	ec 81       	ldd	r30, Y+4	; 0x04
    1d52:	fd 81       	ldd	r31, Y+5	; 0x05
    1d54:	24 81       	ldd	r18, Z+4	; 0x04
    1d56:	35 81       	ldd	r19, Z+5	; 0x05
    1d58:	b9 01       	movw	r22, r18
    1d5a:	0e 94 56 06 	call	0xcac	; 0xcac <gitem_insert>
    1d5e:	0e c0       	rjmp	.+28     	; 0x1d7c <sched_schedule+0x112>
                spin_lock( &kernel.stat_lock );
                stat_dec( current_proc, (stat_t *)kernel.stat + current_proc->core_id );
#endif // nCONFIG_USE_ALB
                spin_unlock( &kernel.stat_lock );
#endif // CONFIG_MP
                ((gitem_t *)current_proc)->group->link = (void *)0;// Просто вырезали из списка, как в gitem_cut
    1d60:	ea 81       	ldd	r30, Y+2	; 0x02
    1d62:	fb 81       	ldd	r31, Y+3	; 0x03
    1d64:	04 80       	ldd	r0, Z+4	; 0x04
    1d66:	f5 81       	ldd	r31, Z+5	; 0x05
    1d68:	e0 2d       	mov	r30, r0
    1d6a:	11 82       	std	Z+1, r1	; 0x01
    1d6c:	10 82       	st	Z, r1
                current_proc->flags &= ~PROC_FLG_RUN;
    1d6e:	ea 81       	ldd	r30, Y+2	; 0x02
    1d70:	fb 81       	ldd	r31, Y+3	; 0x03
    1d72:	83 85       	ldd	r24, Z+11	; 0x0b
    1d74:	8d 7f       	andi	r24, 0xFD	; 253
    1d76:	ea 81       	ldd	r30, Y+2	; 0x02
    1d78:	fb 81       	ldd	r31, Y+3	; 0x03
    1d7a:	83 87       	std	Z+11, r24	; 0x0b
#ifdef CONFIG_MP
    //Текущий процесс более не нужен, освобождаем его блокировку
    spin_unlock( &current_proc->lock );
    spin_lock( &sched->lock );
#endif // CONFIG_MP
    _sched_list_switch( sched );
    1d7c:	8c 81       	ldd	r24, Y+4	; 0x04
    1d7e:	9d 81       	ldd	r25, Y+5	; 0x05
    1d80:	0e 94 0a 0e 	call	0x1c14	; 0x1c14 <_sched_list_switch>
    // Изменять указатель будем при захваченной блокировке,
    // чтобы процессы на других процессорах не прочитали неизвестно что.
    current_proc = (proc_t *)xlist_head( sched->ready ); // Вытесняющая многозадачность же!
    1d84:	ec 81       	ldd	r30, Y+4	; 0x04
    1d86:	fd 81       	ldd	r31, Y+5	; 0x05
    1d88:	82 81       	ldd	r24, Z+2	; 0x02
    1d8a:	93 81       	ldd	r25, Z+3	; 0x03
    1d8c:	0e 94 ce 10 	call	0x219c	; 0x219c <xlist_head>
    1d90:	9b 83       	std	Y+3, r25	; 0x03
    1d92:	8a 83       	std	Y+2, r24	; 0x02
    sched->current_proc = current_proc;
    1d94:	ec 81       	ldd	r30, Y+4	; 0x04
    1d96:	fd 81       	ldd	r31, Y+5	; 0x05
    1d98:	8a 81       	ldd	r24, Y+2	; 0x02
    1d9a:	9b 81       	ldd	r25, Y+3	; 0x03
    1d9c:	91 83       	std	Z+1, r25	; 0x01
    1d9e:	80 83       	st	Z, r24
#ifdef CONFIG_MP
    spin_unlock( &sched->lock );
    spin_lock( &current_proc->lock );
#endif // CONFIG_MP
    //Хук "восстановление контекста"
    if( current_proc->rs_hook )current_proc->rs_hook( current_proc->arg );
    1da0:	ea 81       	ldd	r30, Y+2	; 0x02
    1da2:	fb 81       	ldd	r31, Y+3	; 0x03
    1da4:	86 a1       	ldd	r24, Z+38	; 0x26
    1da6:	97 a1       	ldd	r25, Z+39	; 0x27
    1da8:	00 97       	sbiw	r24, 0x00	; 0
    1daa:	51 f0       	breq	.+20     	; 0x1dc0 <sched_schedule+0x156>
    1dac:	ea 81       	ldd	r30, Y+2	; 0x02
    1dae:	fb 81       	ldd	r31, Y+3	; 0x03
    1db0:	26 a1       	ldd	r18, Z+38	; 0x26
    1db2:	37 a1       	ldd	r19, Z+39	; 0x27
    1db4:	ea 81       	ldd	r30, Y+2	; 0x02
    1db6:	fb 81       	ldd	r31, Y+3	; 0x03
    1db8:	80 a5       	ldd	r24, Z+40	; 0x28
    1dba:	91 a5       	ldd	r25, Z+41	; 0x29
    1dbc:	f9 01       	movw	r30, r18
    1dbe:	09 95       	icall
#ifdef CONFIG_MP
    stack_t * ret_sp = current_proc->spointer;
    spin_unlock( &current_proc->lock );
    return ret_sp;
#else
    return current_proc->spointer;
    1dc0:	ea 81       	ldd	r30, Y+2	; 0x02
    1dc2:	fb 81       	ldd	r31, Y+3	; 0x03
    1dc4:	84 a5       	ldd	r24, Z+44	; 0x2c
    1dc6:	95 a5       	ldd	r25, Z+45	; 0x2d
#endif // CONFIG_MP
}
    1dc8:	27 96       	adiw	r28, 0x07	; 7
    1dca:	0f b6       	in	r0, 0x3f	; 63
    1dcc:	f8 94       	cli
    1dce:	de bf       	out	0x3e, r29	; 62
    1dd0:	0f be       	out	0x3f, r0	; 63
    1dd2:	cd bf       	out	0x3d, r28	; 61
    1dd4:	cf 91       	pop	r28
    1dd6:	df 91       	pop	r29
    1dd8:	08 95       	ret

00001dda <sched_reschedule>:
///----------------------------------------------------------------------------------------
// Функция перепланирования, переключает процессы в обработчике прерывания resched
stack_t * sched_reschedule( stack_t * current_sp )
{
    1dda:	df 93       	push	r29
    1ddc:	cf 93       	push	r28
    1dde:	00 d0       	rcall	.+0      	; 0x1de0 <sched_reschedule+0x6>
    1de0:	00 d0       	rcall	.+0      	; 0x1de2 <sched_reschedule+0x8>
    1de2:	00 d0       	rcall	.+0      	; 0x1de4 <sched_reschedule+0xa>
    1de4:	cd b7       	in	r28, 0x3d	; 61
    1de6:	de b7       	in	r29, 0x3e	; 62
    1de8:	9e 83       	std	Y+6, r25	; 0x06
    1dea:	8d 83       	std	Y+5, r24	; 0x05
#ifdef CONFIG_MP
    sched_t * sched = (sched_t *)kernel.sched + current_core();
#else
    sched_t * sched = (sched_t *)&kernel.sched;
    1dec:	82 ea       	ldi	r24, 0xA2	; 162
    1dee:	91 e0       	ldi	r25, 0x01	; 1
    1df0:	9c 83       	std	Y+4, r25	; 0x04
    1df2:	8b 83       	std	Y+3, r24	; 0x03
#endif // CONFIG_MP
    // Меняем только с локального процессора, блокировку sched->lock можно не захватывать!
    proc_t * current_proc = sched->current_proc;
    1df4:	eb 81       	ldd	r30, Y+3	; 0x03
    1df6:	fc 81       	ldd	r31, Y+4	; 0x04
    1df8:	80 81       	ld	r24, Z
    1dfa:	91 81       	ldd	r25, Z+1	; 0x01
    1dfc:	9a 83       	std	Y+2, r25	; 0x02
    1dfe:	89 83       	std	Y+1, r24	; 0x01
#ifdef CONFIG_MP
    // А вот эту блокировку обязательно надо захватить!
    spin_lock( &current_proc->lock );
#endif // CONFIG_MP
    // Сохранение указателя стека
    current_proc->spointer = current_sp;
    1e00:	e9 81       	ldd	r30, Y+1	; 0x01
    1e02:	fa 81       	ldd	r31, Y+2	; 0x02
    1e04:	8d 81       	ldd	r24, Y+5	; 0x05
    1e06:	9e 81       	ldd	r25, Y+6	; 0x06
    1e08:	95 a7       	std	Z+45, r25	; 0x2d
    1e0a:	84 a7       	std	Z+44, r24	; 0x2c
    // Хук "сохранение контекста"
    if( current_proc->sv_hook )current_proc->sv_hook( current_proc->arg );
    1e0c:	e9 81       	ldd	r30, Y+1	; 0x01
    1e0e:	fa 81       	ldd	r31, Y+2	; 0x02
    1e10:	84 a1       	ldd	r24, Z+36	; 0x24
    1e12:	95 a1       	ldd	r25, Z+37	; 0x25
    1e14:	00 97       	sbiw	r24, 0x00	; 0
    1e16:	51 f0       	breq	.+20     	; 0x1e2c <sched_reschedule+0x52>
    1e18:	e9 81       	ldd	r30, Y+1	; 0x01
    1e1a:	fa 81       	ldd	r31, Y+2	; 0x02
    1e1c:	24 a1       	ldd	r18, Z+36	; 0x24
    1e1e:	35 a1       	ldd	r19, Z+37	; 0x25
    1e20:	e9 81       	ldd	r30, Y+1	; 0x01
    1e22:	fa 81       	ldd	r31, Y+2	; 0x02
    1e24:	80 a5       	ldd	r24, Z+40	; 0x28
    1e26:	91 a5       	ldd	r25, Z+41	; 0x29
    1e28:	f9 01       	movw	r30, r18
    1e2a:	09 95       	icall
#ifdef CONFIG_MP
    spin_unlock( &current_proc->lock );
    spin_lock( &sched->lock );
#endif // CONFIG_MP
    _sched_list_switch( sched );
    1e2c:	8b 81       	ldd	r24, Y+3	; 0x03
    1e2e:	9c 81       	ldd	r25, Y+4	; 0x04
    1e30:	0e 94 0a 0e 	call	0x1c14	; 0x1c14 <_sched_list_switch>
    current_proc = (proc_t *)xlist_head( sched->ready ); // Вытесняющая многозадачность же!
    1e34:	eb 81       	ldd	r30, Y+3	; 0x03
    1e36:	fc 81       	ldd	r31, Y+4	; 0x04
    1e38:	82 81       	ldd	r24, Z+2	; 0x02
    1e3a:	93 81       	ldd	r25, Z+3	; 0x03
    1e3c:	0e 94 ce 10 	call	0x219c	; 0x219c <xlist_head>
    1e40:	9a 83       	std	Y+2, r25	; 0x02
    1e42:	89 83       	std	Y+1, r24	; 0x01
    sched->current_proc = current_proc;
    1e44:	eb 81       	ldd	r30, Y+3	; 0x03
    1e46:	fc 81       	ldd	r31, Y+4	; 0x04
    1e48:	89 81       	ldd	r24, Y+1	; 0x01
    1e4a:	9a 81       	ldd	r25, Y+2	; 0x02
    1e4c:	91 83       	std	Z+1, r25	; 0x01
    1e4e:	80 83       	st	Z, r24

#ifdef CONFIG_MP
    spin_lock(&current_proc->lock);
#endif // CONFIG_MP
    //Хук "восстановление контекста"
    if( current_proc->rs_hook )current_proc->rs_hook( current_proc->arg );
    1e50:	e9 81       	ldd	r30, Y+1	; 0x01
    1e52:	fa 81       	ldd	r31, Y+2	; 0x02
    1e54:	86 a1       	ldd	r24, Z+38	; 0x26
    1e56:	97 a1       	ldd	r25, Z+39	; 0x27
    1e58:	00 97       	sbiw	r24, 0x00	; 0
    1e5a:	51 f0       	breq	.+20     	; 0x1e70 <sched_reschedule+0x96>
    1e5c:	e9 81       	ldd	r30, Y+1	; 0x01
    1e5e:	fa 81       	ldd	r31, Y+2	; 0x02
    1e60:	26 a1       	ldd	r18, Z+38	; 0x26
    1e62:	37 a1       	ldd	r19, Z+39	; 0x27
    1e64:	e9 81       	ldd	r30, Y+1	; 0x01
    1e66:	fa 81       	ldd	r31, Y+2	; 0x02
    1e68:	80 a5       	ldd	r24, Z+40	; 0x28
    1e6a:	91 a5       	ldd	r25, Z+41	; 0x29
    1e6c:	f9 01       	movw	r30, r18
    1e6e:	09 95       	icall
#ifdef CONFIG_MP
    stack_t * ret_sp = current_proc->spointer;
    spin_unlock( &current_proc->lock );
    return ret_sp;
#else
    return current_proc->spointer;
    1e70:	e9 81       	ldd	r30, Y+1	; 0x01
    1e72:	fa 81       	ldd	r31, Y+2	; 0x02
    1e74:	84 a5       	ldd	r24, Z+44	; 0x2c
    1e76:	95 a5       	ldd	r25, Z+45	; 0x2d
#endif // CONFIG_MP
}
    1e78:	26 96       	adiw	r28, 0x06	; 6
    1e7a:	0f b6       	in	r0, 0x3f	; 63
    1e7c:	f8 94       	cli
    1e7e:	de bf       	out	0x3e, r29	; 62
    1e80:	0f be       	out	0x3f, r0	; 63
    1e82:	cd bf       	out	0x3d, r28	; 61
    1e84:	cf 91       	pop	r28
    1e86:	df 91       	pop	r29
    1e88:	08 95       	ret

00001e8a <sem_init_isr>:
*****************************************************************************************/
#include "../include/bugurt.h"

// Инициализация
void sem_init_isr( sem_t * sem, count_t count )
{
    1e8a:	df 93       	push	r29
    1e8c:	cf 93       	push	r28
    1e8e:	00 d0       	rcall	.+0      	; 0x1e90 <sem_init_isr+0x6>
    1e90:	00 d0       	rcall	.+0      	; 0x1e92 <sem_init_isr+0x8>
    1e92:	cd b7       	in	r28, 0x3d	; 61
    1e94:	de b7       	in	r29, 0x3e	; 62
    1e96:	9a 83       	std	Y+2, r25	; 0x02
    1e98:	89 83       	std	Y+1, r24	; 0x01
    1e9a:	7c 83       	std	Y+4, r23	; 0x04
    1e9c:	6b 83       	std	Y+3, r22	; 0x03
    xlist_init( (xlist_t *)sem );
    1e9e:	89 81       	ldd	r24, Y+1	; 0x01
    1ea0:	9a 81       	ldd	r25, Y+2	; 0x02
    1ea2:	0e 94 a4 10 	call	0x2148	; 0x2148 <xlist_init>
    sem->counter = count;
    1ea6:	e9 81       	ldd	r30, Y+1	; 0x01
    1ea8:	fa 81       	ldd	r31, Y+2	; 0x02
    1eaa:	8b 81       	ldd	r24, Y+3	; 0x03
    1eac:	9c 81       	ldd	r25, Y+4	; 0x04
    1eae:	92 8b       	std	Z+18, r25	; 0x12
    1eb0:	81 8b       	std	Z+17, r24	; 0x11
}
    1eb2:	0f 90       	pop	r0
    1eb4:	0f 90       	pop	r0
    1eb6:	0f 90       	pop	r0
    1eb8:	0f 90       	pop	r0
    1eba:	cf 91       	pop	r28
    1ebc:	df 91       	pop	r29
    1ebe:	08 95       	ret

00001ec0 <_sem_lock_stage_1>:

// То же, для внутреннего использования
bool_t _sem_lock_stage_1( sem_t * sem )
{
    1ec0:	df 93       	push	r29
    1ec2:	cf 93       	push	r28
    1ec4:	00 d0       	rcall	.+0      	; 0x1ec6 <_sem_lock_stage_1+0x6>
    1ec6:	00 d0       	rcall	.+0      	; 0x1ec8 <_sem_lock_stage_1+0x8>
    1ec8:	0f 92       	push	r0
    1eca:	cd b7       	in	r28, 0x3d	; 61
    1ecc:	de b7       	in	r29, 0x3e	; 62
    1ece:	9d 83       	std	Y+5, r25	; 0x05
    1ed0:	8c 83       	std	Y+4, r24	; 0x04

    bool_t ret = 0;
    1ed2:	1b 82       	std	Y+3, r1	; 0x03
    if( sem->counter != 0 )
    1ed4:	ec 81       	ldd	r30, Y+4	; 0x04
    1ed6:	fd 81       	ldd	r31, Y+5	; 0x05
    1ed8:	81 89       	ldd	r24, Z+17	; 0x11
    1eda:	92 89       	ldd	r25, Z+18	; 0x12
    1edc:	00 97       	sbiw	r24, 0x00	; 0
    1ede:	61 f0       	breq	.+24     	; 0x1ef8 <_sem_lock_stage_1+0x38>
    {
        sem->counter--;
    1ee0:	ec 81       	ldd	r30, Y+4	; 0x04
    1ee2:	fd 81       	ldd	r31, Y+5	; 0x05
    1ee4:	81 89       	ldd	r24, Z+17	; 0x11
    1ee6:	92 89       	ldd	r25, Z+18	; 0x12
    1ee8:	01 97       	sbiw	r24, 0x01	; 1
    1eea:	ec 81       	ldd	r30, Y+4	; 0x04
    1eec:	fd 81       	ldd	r31, Y+5	; 0x05
    1eee:	92 8b       	std	Z+18, r25	; 0x12
    1ef0:	81 8b       	std	Z+17, r24	; 0x11
#ifdef CONFIG_MP
        spin_unlock( &sem->lock );// Освобождение блокировки семафора
#endif //CONFIG_MP
        ret = (bool_t)1;
    1ef2:	81 e0       	ldi	r24, 0x01	; 1
    1ef4:	8b 83       	std	Y+3, r24	; 0x03
    1ef6:	16 c0       	rjmp	.+44     	; 0x1f24 <_sem_lock_stage_1+0x64>
    }
    else
    {
        proc_t * proc = current_proc();
    1ef8:	0e 94 cc 00 	call	0x198	; 0x198 <current_proc>
    1efc:	9a 83       	std	Y+2, r25	; 0x02
    1efe:	89 83       	std	Y+1, r24	; 0x01
#ifdef CONFIG_MP
        spin_lock( &proc->lock );// Захват блокировки процесса
#endif //CONFIG_MP
        proc->flags |= PROC_FLG_QUEUE;
    1f00:	e9 81       	ldd	r30, Y+1	; 0x01
    1f02:	fa 81       	ldd	r31, Y+2	; 0x02
    1f04:	83 85       	ldd	r24, Z+11	; 0x0b
    1f06:	88 60       	ori	r24, 0x08	; 8
    1f08:	e9 81       	ldd	r30, Y+1	; 0x01
    1f0a:	fa 81       	ldd	r31, Y+2	; 0x02
    1f0c:	83 87       	std	Z+11, r24	; 0x0b
        _proc_stop( proc );
    1f0e:	89 81       	ldd	r24, Y+1	; 0x01
    1f10:	9a 81       	ldd	r25, Y+2	; 0x02
    1f12:	0e 94 7b 0c 	call	0x18f6	; 0x18f6 <_proc_stop>
        gitem_insert( (gitem_t *)proc, (xlist_t *)sem );
    1f16:	89 81       	ldd	r24, Y+1	; 0x01
    1f18:	9a 81       	ldd	r25, Y+2	; 0x02
    1f1a:	2c 81       	ldd	r18, Y+4	; 0x04
    1f1c:	3d 81       	ldd	r19, Y+5	; 0x05
    1f1e:	b9 01       	movw	r22, r18
    1f20:	0e 94 56 06 	call	0xcac	; 0xcac <gitem_insert>
#ifdef CONFIG_MP
        spin_unlock( &proc->lock );// Освобождение блокировки процесса
#endif //CONFIG_MP
    }
    return ret;
    1f24:	8b 81       	ldd	r24, Y+3	; 0x03
}
    1f26:	0f 90       	pop	r0
    1f28:	0f 90       	pop	r0
    1f2a:	0f 90       	pop	r0
    1f2c:	0f 90       	pop	r0
    1f2e:	0f 90       	pop	r0
    1f30:	cf 91       	pop	r28
    1f32:	df 91       	pop	r29
    1f34:	08 95       	ret

00001f36 <_sem_unlock>:

void _sem_unlock( sem_t * sem )
{
    1f36:	df 93       	push	r29
    1f38:	cf 93       	push	r28
    1f3a:	00 d0       	rcall	.+0      	; 0x1f3c <_sem_unlock+0x6>
    1f3c:	00 d0       	rcall	.+0      	; 0x1f3e <_sem_unlock+0x8>
    1f3e:	cd b7       	in	r28, 0x3d	; 61
    1f40:	de b7       	in	r29, 0x3e	; 62
    1f42:	9c 83       	std	Y+4, r25	; 0x04
    1f44:	8b 83       	std	Y+3, r24	; 0x03
    if( ((xlist_t *)sem)->index == (index_t)0  )
    1f46:	eb 81       	ldd	r30, Y+3	; 0x03
    1f48:	fc 81       	ldd	r31, Y+4	; 0x04
    1f4a:	80 89       	ldd	r24, Z+16	; 0x10
    1f4c:	88 23       	and	r24, r24
    1f4e:	51 f4       	brne	.+20     	; 0x1f64 <_sem_unlock+0x2e>
    {
        sem->counter++;
    1f50:	eb 81       	ldd	r30, Y+3	; 0x03
    1f52:	fc 81       	ldd	r31, Y+4	; 0x04
    1f54:	81 89       	ldd	r24, Z+17	; 0x11
    1f56:	92 89       	ldd	r25, Z+18	; 0x12
    1f58:	01 96       	adiw	r24, 0x01	; 1
    1f5a:	eb 81       	ldd	r30, Y+3	; 0x03
    1f5c:	fc 81       	ldd	r31, Y+4	; 0x04
    1f5e:	92 8b       	std	Z+18, r25	; 0x12
    1f60:	81 8b       	std	Z+17, r24	; 0x11
    1f62:	15 c0       	rjmp	.+42     	; 0x1f8e <_sem_unlock+0x58>
#ifdef CONFIG_MP
        spin_unlock( &sem->lock );
#endif //CONFIG_MP
        return;
    }
    proc_t * proc = (proc_t *)xlist_head((xlist_t *)sem);
    1f64:	8b 81       	ldd	r24, Y+3	; 0x03
    1f66:	9c 81       	ldd	r25, Y+4	; 0x04
    1f68:	0e 94 ce 10 	call	0x219c	; 0x219c <xlist_head>
    1f6c:	9a 83       	std	Y+2, r25	; 0x02
    1f6e:	89 83       	std	Y+1, r24	; 0x01
#ifdef CONFIG_MP
    spin_lock( &proc->lock );// Захват спин-блокировки процесса
#endif //CONFIG_MP
    proc->flags &= ~PROC_FLG_QUEUE;
    1f70:	e9 81       	ldd	r30, Y+1	; 0x01
    1f72:	fa 81       	ldd	r31, Y+2	; 0x02
    1f74:	83 85       	ldd	r24, Z+11	; 0x0b
    1f76:	87 7f       	andi	r24, 0xF7	; 247
    1f78:	e9 81       	ldd	r30, Y+1	; 0x01
    1f7a:	fa 81       	ldd	r31, Y+2	; 0x02
    1f7c:	83 87       	std	Z+11, r24	; 0x0b
    gitem_cut( (gitem_t *)proc );
    1f7e:	89 81       	ldd	r24, Y+1	; 0x01
    1f80:	9a 81       	ldd	r25, Y+2	; 0x02
    1f82:	0e 94 b3 07 	call	0xf66	; 0xf66 <gitem_cut>
    _proc_run( proc );
    1f86:	89 81       	ldd	r24, Y+1	; 0x01
    1f88:	9a 81       	ldd	r25, Y+2	; 0x02
    1f8a:	0e 94 f4 0b 	call	0x17e8	; 0x17e8 <_proc_run>
#ifdef CONFIG_MP
    spin_unlock( &proc->lock );// Освобождение спин-блокировки процесса
#endif //CONFIG_MP
}
    1f8e:	0f 90       	pop	r0
    1f90:	0f 90       	pop	r0
    1f92:	0f 90       	pop	r0
    1f94:	0f 90       	pop	r0
    1f96:	cf 91       	pop	r28
    1f98:	df 91       	pop	r29
    1f9a:	08 95       	ret

00001f9c <sig_init_isr>:
*****************************************************************************************/
#include "../include/bugurt.h"
///========================================================================================
// Инициация
void sig_init_isr( sig_t * sig )
{
    1f9c:	df 93       	push	r29
    1f9e:	cf 93       	push	r28
    1fa0:	00 d0       	rcall	.+0      	; 0x1fa2 <sig_init_isr+0x6>
    1fa2:	cd b7       	in	r28, 0x3d	; 61
    1fa4:	de b7       	in	r29, 0x3e	; 62
    1fa6:	9a 83       	std	Y+2, r25	; 0x02
    1fa8:	89 83       	std	Y+1, r24	; 0x01
    {
        xlist_init( (xlist_t *)sig->sig_list + i );
        stat_init( (stat_t *)sig->sig_stat + i );
    }
#else
    xlist_init( (xlist_t *)sig );
    1faa:	89 81       	ldd	r24, Y+1	; 0x01
    1fac:	9a 81       	ldd	r25, Y+2	; 0x02
    1fae:	0e 94 a4 10 	call	0x2148	; 0x2148 <xlist_init>
#endif
}
    1fb2:	0f 90       	pop	r0
    1fb4:	0f 90       	pop	r0
    1fb6:	cf 91       	pop	r28
    1fb8:	df 91       	pop	r29
    1fba:	08 95       	ret

00001fbc <sig_wait_stage_1_isr>:
///========================================================================================
// Это выполнится при постановке процесса в список ожидания сигнала
void sig_wait_stage_1_isr( sig_t * sig )
{
    1fbc:	df 93       	push	r29
    1fbe:	cf 93       	push	r28
    1fc0:	00 d0       	rcall	.+0      	; 0x1fc2 <sig_wait_stage_1_isr+0x6>
    1fc2:	00 d0       	rcall	.+0      	; 0x1fc4 <sig_wait_stage_1_isr+0x8>
    1fc4:	cd b7       	in	r28, 0x3d	; 61
    1fc6:	de b7       	in	r29, 0x3e	; 62
    1fc8:	9c 83       	std	Y+4, r25	; 0x04
    1fca:	8b 83       	std	Y+3, r24	; 0x03
#ifdef CONFIG_MP
    spin_lock( &sig->lock );
#endif // CONFIG_MP
    proc_t * proc = current_proc();
    1fcc:	0e 94 cc 00 	call	0x198	; 0x198 <current_proc>
    1fd0:	9a 83       	std	Y+2, r25	; 0x02
    1fd2:	89 83       	std	Y+1, r24	; 0x01
#ifdef CONFIG_MP
    spin_lock( &proc->lock );
#endif // CONFIG_MP
    // Останавливаем процесс
    _proc_stop(proc);
    1fd4:	89 81       	ldd	r24, Y+1	; 0x01
    1fd6:	9a 81       	ldd	r25, Y+2	; 0x02
    1fd8:	0e 94 7b 0c 	call	0x18f6	; 0x18f6 <_proc_stop>
    proc->flags |= PROC_FLG_WAIT;
    1fdc:	e9 81       	ldd	r30, Y+1	; 0x01
    1fde:	fa 81       	ldd	r31, Y+2	; 0x02
    1fe0:	83 85       	ldd	r24, Z+11	; 0x0b
    1fe2:	80 61       	ori	r24, 0x10	; 16
    1fe4:	e9 81       	ldd	r30, Y+1	; 0x01
    1fe6:	fa 81       	ldd	r31, Y+2	; 0x02
    1fe8:	83 87       	std	Z+11, r24	; 0x0b
        stat_inc( proc, (stat_t *)sig->sig_stat + sig_core );
    }
    spin_unlock( &proc->lock );
    spin_unlock( &sig->lock );
#else
    gitem_insert_group( (gitem_t *)proc, (xlist_t *)sig );
    1fea:	89 81       	ldd	r24, Y+1	; 0x01
    1fec:	9a 81       	ldd	r25, Y+2	; 0x02
    1fee:	2b 81       	ldd	r18, Y+3	; 0x03
    1ff0:	3c 81       	ldd	r19, Y+4	; 0x04
    1ff2:	b9 01       	movw	r22, r18
    1ff4:	0e 94 b2 06 	call	0xd64	; 0xd64 <gitem_insert_group>
#endif //CONFIG_MP
}
    1ff8:	0f 90       	pop	r0
    1ffa:	0f 90       	pop	r0
    1ffc:	0f 90       	pop	r0
    1ffe:	0f 90       	pop	r0
    2000:	cf 91       	pop	r28
    2002:	df 91       	pop	r29
    2004:	08 95       	ret

00002006 <sig_signal_isr>:
    enable_interrupts();
}
///========================================================================================
// Тоже самое что и предыдущие, олько для вызова из обработчиков прерываний и из критических секций
void sig_signal_isr( sig_t * sig )
{
    2006:	df 93       	push	r29
    2008:	cf 93       	push	r28
    200a:	00 d0       	rcall	.+0      	; 0x200c <sig_signal_isr+0x6>
    200c:	00 d0       	rcall	.+0      	; 0x200e <sig_signal_isr+0x8>
    200e:	cd b7       	in	r28, 0x3d	; 61
    2010:	de b7       	in	r29, 0x3e	; 62
    2012:	9c 83       	std	Y+4, r25	; 0x04
    2014:	8b 83       	std	Y+3, r24	; 0x03
    }
    resched(core);// Перепланировка
    spin_unlock( &proc->lock );// Освобождение блокировки процесса
    spin_unlock( &sig->lock );// Освобождение блокировки сигнала
#else
    if( ((xlist_t *)sig)->index == (index_t)0 )return;
    2016:	eb 81       	ldd	r30, Y+3	; 0x03
    2018:	fc 81       	ldd	r31, Y+4	; 0x04
    201a:	80 89       	ldd	r24, Z+16	; 0x10
    201c:	88 23       	and	r24, r24
    201e:	a9 f0       	breq	.+42     	; 0x204a <sig_signal_isr+0x44>
    proc_t * proc = (proc_t *)xlist_head( (xlist_t *)sig );
    2020:	8b 81       	ldd	r24, Y+3	; 0x03
    2022:	9c 81       	ldd	r25, Y+4	; 0x04
    2024:	0e 94 ce 10 	call	0x219c	; 0x219c <xlist_head>
    2028:	9a 83       	std	Y+2, r25	; 0x02
    202a:	89 83       	std	Y+1, r24	; 0x01
    gitem_fast_cut( (gitem_t *)proc );
    202c:	89 81       	ldd	r24, Y+1	; 0x01
    202e:	9a 81       	ldd	r25, Y+2	; 0x02
    2030:	0e 94 2d 07 	call	0xe5a	; 0xe5a <gitem_fast_cut>
    gitem_insert( (gitem_t *)proc, kernel.sched.ready );
    2034:	89 81       	ldd	r24, Y+1	; 0x01
    2036:	9a 81       	ldd	r25, Y+2	; 0x02
    2038:	20 91 a4 01 	lds	r18, 0x01A4
    203c:	30 91 a5 01 	lds	r19, 0x01A5
    2040:	b9 01       	movw	r22, r18
    2042:	0e 94 56 06 	call	0xcac	; 0xcac <gitem_insert>
    resched();
    2046:	0e 94 f7 00 	call	0x1ee	; 0x1ee <resched>
#endif //CONFIG_MP
}
    204a:	0f 90       	pop	r0
    204c:	0f 90       	pop	r0
    204e:	0f 90       	pop	r0
    2050:	0f 90       	pop	r0
    2052:	cf 91       	pop	r28
    2054:	df 91       	pop	r29
    2056:	08 95       	ret

00002058 <sig_broadcast_isr>:
///----------------------------------------------------------------------------------------
void sig_broadcast_isr( sig_t * sig )
{
    2058:	df 93       	push	r29
    205a:	cf 93       	push	r28
    205c:	00 d0       	rcall	.+0      	; 0x205e <sig_broadcast_isr+0x6>
    205e:	cd b7       	in	r28, 0x3d	; 61
    2060:	de b7       	in	r29, 0x3e	; 62
    2062:	9a 83       	std	Y+2, r25	; 0x02
    2064:	89 83       	std	Y+1, r24	; 0x01

        resched(core);
    }
    spin_unlock( &sig->lock );
#else
    gitem_xlist_merge( (xlist_t *)sig, kernel.sched.ready );
    2066:	20 91 a4 01 	lds	r18, 0x01A4
    206a:	30 91 a5 01 	lds	r19, 0x01A5
    206e:	89 81       	ldd	r24, Y+1	; 0x01
    2070:	9a 81       	ldd	r25, Y+2	; 0x02
    2072:	b9 01       	movw	r22, r18
    2074:	0e 94 ca 07 	call	0xf94	; 0xf94 <gitem_xlist_merge>
    resched();
    2078:	0e 94 f7 00 	call	0x1ee	; 0x1ee <resched>
#endif //CONFIG_MP
}
    207c:	0f 90       	pop	r0
    207e:	0f 90       	pop	r0
    2080:	cf 91       	pop	r28
    2082:	df 91       	pop	r29
    2084:	08 95       	ret

00002086 <_clear_timer>:
*                                                                                        *
*****************************************************************************************/
#include "../include/bugurt.h"
///========================================================================================
void _clear_timer(timer_t * t)
{
    2086:	df 93       	push	r29
    2088:	cf 93       	push	r28
    208a:	00 d0       	rcall	.+0      	; 0x208c <_clear_timer+0x6>
    208c:	cd b7       	in	r28, 0x3d	; 61
    208e:	de b7       	in	r29, 0x3e	; 62
    2090:	9a 83       	std	Y+2, r25	; 0x02
    2092:	89 83       	std	Y+1, r24	; 0x01
#ifdef CONFIG_MP
    core_id_t current_core = _enter_crit_sec();
    spin_lock( &kernel.timer_lock );
#else
    enter_crit_sec();
    2094:	0e 94 00 06 	call	0xc00	; 0xc00 <enter_crit_sec>
#endif //CONFIG_MP
    *t = kernel.timer;
    2098:	80 91 fc 01 	lds	r24, 0x01FC
    209c:	90 91 fd 01 	lds	r25, 0x01FD
    20a0:	e9 81       	ldd	r30, Y+1	; 0x01
    20a2:	fa 81       	ldd	r31, Y+2	; 0x02
    20a4:	91 83       	std	Z+1, r25	; 0x01
    20a6:	80 83       	st	Z, r24
#ifdef CONFIG_MP
    spin_unlock( &kernel.timer_lock );
    _exit_crit_sec(current_core);
#else
    exit_crit_sec();
    20a8:	0e 94 12 06 	call	0xc24	; 0xc24 <exit_crit_sec>
#endif //CONFIG_MP
}
    20ac:	0f 90       	pop	r0
    20ae:	0f 90       	pop	r0
    20b0:	cf 91       	pop	r28
    20b2:	df 91       	pop	r29
    20b4:	08 95       	ret

000020b6 <_timer>:
///----------------------------------------------------------------------------------------
timer_t _timer(timer_t t)
{
    20b6:	df 93       	push	r29
    20b8:	cf 93       	push	r28
    20ba:	00 d0       	rcall	.+0      	; 0x20bc <_timer+0x6>
    20bc:	00 d0       	rcall	.+0      	; 0x20be <_timer+0x8>
    20be:	cd b7       	in	r28, 0x3d	; 61
    20c0:	de b7       	in	r29, 0x3e	; 62
    20c2:	9c 83       	std	Y+4, r25	; 0x04
    20c4:	8b 83       	std	Y+3, r24	; 0x03
    timer_t ret;
#ifdef CONFIG_MP
    core_id_t current_core = _enter_crit_sec();
    spin_lock( &kernel.timer_lock );
#else
    enter_crit_sec();
    20c6:	0e 94 00 06 	call	0xc00	; 0xc00 <enter_crit_sec>
#endif //CONFIG_MP
    ret = kernel.timer - t;
    20ca:	20 91 fc 01 	lds	r18, 0x01FC
    20ce:	30 91 fd 01 	lds	r19, 0x01FD
    20d2:	8b 81       	ldd	r24, Y+3	; 0x03
    20d4:	9c 81       	ldd	r25, Y+4	; 0x04
    20d6:	a9 01       	movw	r20, r18
    20d8:	48 1b       	sub	r20, r24
    20da:	59 0b       	sbc	r21, r25
    20dc:	ca 01       	movw	r24, r20
    20de:	9a 83       	std	Y+2, r25	; 0x02
    20e0:	89 83       	std	Y+1, r24	; 0x01
#ifdef CONFIG_MP
    spin_unlock( &kernel.timer_lock );
    _exit_crit_sec(current_core);
#else
    exit_crit_sec();
    20e2:	0e 94 12 06 	call	0xc24	; 0xc24 <exit_crit_sec>
#endif //CONFIG_MP
    return ret;
    20e6:	89 81       	ldd	r24, Y+1	; 0x01
    20e8:	9a 81       	ldd	r25, Y+2	; 0x02
}
    20ea:	0f 90       	pop	r0
    20ec:	0f 90       	pop	r0
    20ee:	0f 90       	pop	r0
    20f0:	0f 90       	pop	r0
    20f2:	cf 91       	pop	r28
    20f4:	df 91       	pop	r29
    20f6:	08 95       	ret

000020f8 <wait_time>:

///----------------------------------------------------------------------------------------
void wait_time(timer_t time)
{
    20f8:	df 93       	push	r29
    20fa:	cf 93       	push	r28
    20fc:	00 d0       	rcall	.+0      	; 0x20fe <wait_time+0x6>
    20fe:	00 d0       	rcall	.+0      	; 0x2100 <wait_time+0x8>
    2100:	0f 92       	push	r0
    2102:	cd b7       	in	r28, 0x3d	; 61
    2104:	de b7       	in	r29, 0x3e	; 62
    2106:	9d 83       	std	Y+5, r25	; 0x05
    2108:	8c 83       	std	Y+4, r24	; 0x04
    timer_t tmr;
    bool_t roll=(bool_t)1;
    210a:	81 e0       	ldi	r24, 0x01	; 1
    210c:	89 83       	std	Y+1, r24	; 0x01
    CLEAR_TIMER(tmr);
    210e:	ce 01       	movw	r24, r28
    2110:	02 96       	adiw	r24, 0x02	; 2
    2112:	0e 94 43 10 	call	0x2086	; 0x2086 <_clear_timer>
    2116:	0d c0       	rjmp	.+26     	; 0x2132 <wait_time+0x3a>
    while((bool_t)roll)
    {
        roll = (bool_t)( TIMER(tmr) < (timer_t)time );
    2118:	8a 81       	ldd	r24, Y+2	; 0x02
    211a:	9b 81       	ldd	r25, Y+3	; 0x03
    211c:	0e 94 5b 10 	call	0x20b6	; 0x20b6 <_timer>
    2120:	9c 01       	movw	r18, r24
    2122:	19 82       	std	Y+1, r1	; 0x01
    2124:	8c 81       	ldd	r24, Y+4	; 0x04
    2126:	9d 81       	ldd	r25, Y+5	; 0x05
    2128:	28 17       	cp	r18, r24
    212a:	39 07       	cpc	r19, r25
    212c:	10 f4       	brcc	.+4      	; 0x2132 <wait_time+0x3a>
    212e:	81 e0       	ldi	r24, 0x01	; 1
    2130:	89 83       	std	Y+1, r24	; 0x01
void wait_time(timer_t time)
{
    timer_t tmr;
    bool_t roll=(bool_t)1;
    CLEAR_TIMER(tmr);
    while((bool_t)roll)
    2132:	89 81       	ldd	r24, Y+1	; 0x01
    2134:	88 23       	and	r24, r24
    2136:	81 f7       	brne	.-32     	; 0x2118 <wait_time+0x20>
    {
        roll = (bool_t)( TIMER(tmr) < (timer_t)time );
    }
}
    2138:	0f 90       	pop	r0
    213a:	0f 90       	pop	r0
    213c:	0f 90       	pop	r0
    213e:	0f 90       	pop	r0
    2140:	0f 90       	pop	r0
    2142:	cf 91       	pop	r28
    2144:	df 91       	pop	r29
    2146:	08 95       	ret

00002148 <xlist_init>:
**********************************************/
//Инициация
void xlist_init(
    xlist_t * xlist
)
{
    2148:	df 93       	push	r29
    214a:	cf 93       	push	r28
    214c:	00 d0       	rcall	.+0      	; 0x214e <xlist_init+0x6>
    214e:	00 d0       	rcall	.+0      	; 0x2150 <xlist_init+0x8>
    2150:	cd b7       	in	r28, 0x3d	; 61
    2152:	de b7       	in	r29, 0x3e	; 62
    2154:	9c 83       	std	Y+4, r25	; 0x04
    2156:	8b 83       	std	Y+3, r24	; 0x03
    count_t i;
    //список пуст
    xlist->index = (index_t)0;
    2158:	eb 81       	ldd	r30, Y+3	; 0x03
    215a:	fc 81       	ldd	r31, Y+4	; 0x04
    215c:	10 8a       	std	Z+16, r1	; 0x10
    //обнуляем указатели
    for( i = 0; i < BITS_IN_INDEX_T; i++ )xlist->item[i] = (item_t *)0;
    215e:	1a 82       	std	Y+2, r1	; 0x02
    2160:	19 82       	std	Y+1, r1	; 0x01
    2162:	10 c0       	rjmp	.+32     	; 0x2184 <xlist_init+0x3c>
    2164:	89 81       	ldd	r24, Y+1	; 0x01
    2166:	9a 81       	ldd	r25, Y+2	; 0x02
    2168:	2b 81       	ldd	r18, Y+3	; 0x03
    216a:	3c 81       	ldd	r19, Y+4	; 0x04
    216c:	88 0f       	add	r24, r24
    216e:	99 1f       	adc	r25, r25
    2170:	f9 01       	movw	r30, r18
    2172:	e8 0f       	add	r30, r24
    2174:	f9 1f       	adc	r31, r25
    2176:	11 82       	std	Z+1, r1	; 0x01
    2178:	10 82       	st	Z, r1
    217a:	89 81       	ldd	r24, Y+1	; 0x01
    217c:	9a 81       	ldd	r25, Y+2	; 0x02
    217e:	01 96       	adiw	r24, 0x01	; 1
    2180:	9a 83       	std	Y+2, r25	; 0x02
    2182:	89 83       	std	Y+1, r24	; 0x01
    2184:	89 81       	ldd	r24, Y+1	; 0x01
    2186:	9a 81       	ldd	r25, Y+2	; 0x02
    2188:	88 30       	cpi	r24, 0x08	; 8
    218a:	91 05       	cpc	r25, r1
    218c:	58 f3       	brcs	.-42     	; 0x2164 <xlist_init+0x1c>
}
    218e:	0f 90       	pop	r0
    2190:	0f 90       	pop	r0
    2192:	0f 90       	pop	r0
    2194:	0f 90       	pop	r0
    2196:	cf 91       	pop	r28
    2198:	df 91       	pop	r29
    219a:	08 95       	ret

0000219c <xlist_head>:
//===========================================================================
//Поиск головы списка
item_t * xlist_head(xlist_t * xlist)
{
    219c:	df 93       	push	r29
    219e:	cf 93       	push	r28
    21a0:	00 d0       	rcall	.+0      	; 0x21a2 <xlist_head+0x6>
    21a2:	00 d0       	rcall	.+0      	; 0x21a4 <xlist_head+0x8>
    21a4:	0f 92       	push	r0
    21a6:	cd b7       	in	r28, 0x3d	; 61
    21a8:	de b7       	in	r29, 0x3e	; 62
    21aa:	9d 83       	std	Y+5, r25	; 0x05
    21ac:	8c 83       	std	Y+4, r24	; 0x04
    item_t * ret_val = (item_t *)0;
    21ae:	1b 82       	std	Y+3, r1	; 0x03
    21b0:	1a 82       	std	Y+2, r1	; 0x02
    index_t index = xlist->index;
    21b2:	ec 81       	ldd	r30, Y+4	; 0x04
    21b4:	fd 81       	ldd	r31, Y+5	; 0x05
    21b6:	80 89       	ldd	r24, Z+16	; 0x10
    21b8:	89 83       	std	Y+1, r24	; 0x01

    if( index != (index_t)0 )
    21ba:	89 81       	ldd	r24, Y+1	; 0x01
    21bc:	88 23       	and	r24, r24
    21be:	81 f0       	breq	.+32     	; 0x21e0 <xlist_head+0x44>
    {
        ret_val = xlist->item[ index_search( index ) ];
    21c0:	89 81       	ldd	r24, Y+1	; 0x01
    21c2:	0e 94 d7 08 	call	0x11ae	; 0x11ae <index_search>
    21c6:	88 2f       	mov	r24, r24
    21c8:	90 e0       	ldi	r25, 0x00	; 0
    21ca:	2c 81       	ldd	r18, Y+4	; 0x04
    21cc:	3d 81       	ldd	r19, Y+5	; 0x05
    21ce:	88 0f       	add	r24, r24
    21d0:	99 1f       	adc	r25, r25
    21d2:	f9 01       	movw	r30, r18
    21d4:	e8 0f       	add	r30, r24
    21d6:	f9 1f       	adc	r31, r25
    21d8:	80 81       	ld	r24, Z
    21da:	91 81       	ldd	r25, Z+1	; 0x01
    21dc:	9b 83       	std	Y+3, r25	; 0x03
    21de:	8a 83       	std	Y+2, r24	; 0x02
    }
    return ret_val;
    21e0:	8a 81       	ldd	r24, Y+2	; 0x02
    21e2:	9b 81       	ldd	r25, Y+3	; 0x03
}
    21e4:	0f 90       	pop	r0
    21e6:	0f 90       	pop	r0
    21e8:	0f 90       	pop	r0
    21ea:	0f 90       	pop	r0
    21ec:	0f 90       	pop	r0
    21ee:	cf 91       	pop	r28
    21f0:	df 91       	pop	r29
    21f2:	08 95       	ret

000021f4 <xlist_switch>:

//===========================================================================
// переключение указателя в массиве на следующий элемент, пригодится в планировщике
void xlist_switch(xlist_t * xlist, prio_t prio)
{
    21f4:	df 93       	push	r29
    21f6:	cf 93       	push	r28
    21f8:	00 d0       	rcall	.+0      	; 0x21fa <xlist_switch+0x6>
    21fa:	00 d0       	rcall	.+0      	; 0x21fc <xlist_switch+0x8>
    21fc:	0f 92       	push	r0
    21fe:	cd b7       	in	r28, 0x3d	; 61
    2200:	de b7       	in	r29, 0x3e	; 62
    2202:	9c 83       	std	Y+4, r25	; 0x04
    2204:	8b 83       	std	Y+3, r24	; 0x03
    2206:	6d 83       	std	Y+5, r22	; 0x05
    item_t ** current = xlist->item + prio;
    2208:	2b 81       	ldd	r18, Y+3	; 0x03
    220a:	3c 81       	ldd	r19, Y+4	; 0x04
    220c:	8d 81       	ldd	r24, Y+5	; 0x05
    220e:	88 2f       	mov	r24, r24
    2210:	90 e0       	ldi	r25, 0x00	; 0
    2212:	88 0f       	add	r24, r24
    2214:	99 1f       	adc	r25, r25
    2216:	82 0f       	add	r24, r18
    2218:	93 1f       	adc	r25, r19
    221a:	9a 83       	std	Y+2, r25	; 0x02
    221c:	89 83       	std	Y+1, r24	; 0x01
    *current = (*current)->next;
    221e:	e9 81       	ldd	r30, Y+1	; 0x01
    2220:	fa 81       	ldd	r31, Y+2	; 0x02
    2222:	01 90       	ld	r0, Z+
    2224:	f0 81       	ld	r31, Z
    2226:	e0 2d       	mov	r30, r0
    2228:	80 81       	ld	r24, Z
    222a:	91 81       	ldd	r25, Z+1	; 0x01
    222c:	e9 81       	ldd	r30, Y+1	; 0x01
    222e:	fa 81       	ldd	r31, Y+2	; 0x02
    2230:	91 83       	std	Z+1, r25	; 0x01
    2232:	80 83       	st	Z, r24
    //*current = (item_t *)*(item_t **)*(item_t ***)current;
}
    2234:	0f 90       	pop	r0
    2236:	0f 90       	pop	r0
    2238:	0f 90       	pop	r0
    223a:	0f 90       	pop	r0
    223c:	0f 90       	pop	r0
    223e:	cf 91       	pop	r28
    2240:	df 91       	pop	r29
    2242:	08 95       	ret

00002244 <raise_syscall_interrupt>:
/*
 */
#include <bugurt.h>
void raise_syscall_interrupt(void)
{
    2244:	df 93       	push	r29
    2246:	cf 93       	push	r28
    2248:	cd b7       	in	r28, 0x3d	; 61
    224a:	de b7       	in	r29, 0x3e	; 62
    R2_on();
    224c:	ab e2       	ldi	r26, 0x2B	; 43
    224e:	b0 e0       	ldi	r27, 0x00	; 0
    2250:	eb e2       	ldi	r30, 0x2B	; 43
    2252:	f0 e0       	ldi	r31, 0x00	; 0
    2254:	80 81       	ld	r24, Z
    2256:	84 60       	ori	r24, 0x04	; 4
    2258:	8c 93       	st	X, r24
    G2_off();
    225a:	ab e2       	ldi	r26, 0x2B	; 43
    225c:	b0 e0       	ldi	r27, 0x00	; 0
    225e:	eb e2       	ldi	r30, 0x2B	; 43
    2260:	f0 e0       	ldi	r31, 0x00	; 0
    2262:	80 81       	ld	r24, Z
    2264:	87 7f       	andi	r24, 0xF7	; 247
    2266:	8c 93       	st	X, r24
    R2_off();
    2268:	ab e2       	ldi	r26, 0x2B	; 43
    226a:	b0 e0       	ldi	r27, 0x00	; 0
    226c:	eb e2       	ldi	r30, 0x2B	; 43
    226e:	f0 e0       	ldi	r31, 0x00	; 0
    2270:	80 81       	ld	r24, Z
    2272:	8b 7f       	andi	r24, 0xFB	; 251
    2274:	8c 93       	st	X, r24
    G2_on();
    2276:	ab e2       	ldi	r26, 0x2B	; 43
    2278:	b0 e0       	ldi	r27, 0x00	; 0
    227a:	eb e2       	ldi	r30, 0x2B	; 43
    227c:	f0 e0       	ldi	r31, 0x00	; 0
    227e:	80 81       	ld	r24, Z
    2280:	88 60       	ori	r24, 0x08	; 8
    2282:	8c 93       	st	X, r24
}
    2284:	cf 91       	pop	r28
    2286:	df 91       	pop	r29
    2288:	08 95       	ret

0000228a <start_scheduler>:

void start_scheduler( void )
{
    228a:	df 93       	push	r29
    228c:	cf 93       	push	r28
    228e:	cd b7       	in	r28, 0x3d	; 61
    2290:	de b7       	in	r29, 0x3e	; 62
    TIMSK2 |= 0x02;
    2292:	a0 e7       	ldi	r26, 0x70	; 112
    2294:	b0 e0       	ldi	r27, 0x00	; 0
    2296:	e0 e7       	ldi	r30, 0x70	; 112
    2298:	f0 e0       	ldi	r31, 0x00	; 0
    229a:	80 81       	ld	r24, Z
    229c:	82 60       	ori	r24, 0x02	; 2
    229e:	8c 93       	st	X, r24
    EIMSK |= 0x02;
    22a0:	ad e3       	ldi	r26, 0x3D	; 61
    22a2:	b0 e0       	ldi	r27, 0x00	; 0
    22a4:	ed e3       	ldi	r30, 0x3D	; 61
    22a6:	f0 e0       	ldi	r31, 0x00	; 0
    22a8:	80 81       	ld	r24, Z
    22aa:	82 60       	ori	r24, 0x02	; 2
    22ac:	8c 93       	st	X, r24
    EIFR |= 0x02;
    22ae:	ac e3       	ldi	r26, 0x3C	; 60
    22b0:	b0 e0       	ldi	r27, 0x00	; 0
    22b2:	ec e3       	ldi	r30, 0x3C	; 60
    22b4:	f0 e0       	ldi	r31, 0x00	; 0
    22b6:	80 81       	ld	r24, Z
    22b8:	82 60       	ori	r24, 0x02	; 2
    22ba:	8c 93       	st	X, r24
}
    22bc:	cf 91       	pop	r28
    22be:	df 91       	pop	r29
    22c0:	08 95       	ret

000022c2 <blink_1>:
    EIMSK &= ~0x02;
}

///----------------------------------------------------------------------------------------
void blink_1(void * t)
{
    22c2:	df 93       	push	r29
    22c4:	cf 93       	push	r28
    22c6:	00 d0       	rcall	.+0      	; 0x22c8 <blink_1+0x6>
    22c8:	cd b7       	in	r28, 0x3d	; 61
    22ca:	de b7       	in	r29, 0x3e	; 62
    22cc:	9a 83       	std	Y+2, r25	; 0x02
    22ce:	89 83       	std	Y+1, r24	; 0x01
    PORTB ^= 0x10;
    22d0:	a5 e2       	ldi	r26, 0x25	; 37
    22d2:	b0 e0       	ldi	r27, 0x00	; 0
    22d4:	e5 e2       	ldi	r30, 0x25	; 37
    22d6:	f0 e0       	ldi	r31, 0x00	; 0
    22d8:	90 81       	ld	r25, Z
    22da:	80 e1       	ldi	r24, 0x10	; 16
    22dc:	89 27       	eor	r24, r25
    22de:	8c 93       	st	X, r24
}
    22e0:	0f 90       	pop	r0
    22e2:	0f 90       	pop	r0
    22e4:	cf 91       	pop	r28
    22e6:	df 91       	pop	r29
    22e8:	08 95       	ret

000022ea <blink_2>:
void blink_2(void * t)
{
    22ea:	df 93       	push	r29
    22ec:	cf 93       	push	r28
    22ee:	00 d0       	rcall	.+0      	; 0x22f0 <blink_2+0x6>
    22f0:	cd b7       	in	r28, 0x3d	; 61
    22f2:	de b7       	in	r29, 0x3e	; 62
    22f4:	9a 83       	std	Y+2, r25	; 0x02
    22f6:	89 83       	std	Y+1, r24	; 0x01
    PORTB ^= 0x08;
    22f8:	a5 e2       	ldi	r26, 0x25	; 37
    22fa:	b0 e0       	ldi	r27, 0x00	; 0
    22fc:	e5 e2       	ldi	r30, 0x25	; 37
    22fe:	f0 e0       	ldi	r31, 0x00	; 0
    2300:	90 81       	ld	r25, Z
    2302:	88 e0       	ldi	r24, 0x08	; 8
    2304:	89 27       	eor	r24, r25
    2306:	8c 93       	st	X, r24
}
    2308:	0f 90       	pop	r0
    230a:	0f 90       	pop	r0
    230c:	cf 91       	pop	r28
    230e:	df 91       	pop	r29
    2310:	08 95       	ret

00002312 <blink_3>:
void blink_3(void * t)
{
    2312:	df 93       	push	r29
    2314:	cf 93       	push	r28
    2316:	00 d0       	rcall	.+0      	; 0x2318 <blink_3+0x6>
    2318:	cd b7       	in	r28, 0x3d	; 61
    231a:	de b7       	in	r29, 0x3e	; 62
    231c:	9a 83       	std	Y+2, r25	; 0x02
    231e:	89 83       	std	Y+1, r24	; 0x01
    PORTB ^= 0x04;
    2320:	a5 e2       	ldi	r26, 0x25	; 37
    2322:	b0 e0       	ldi	r27, 0x00	; 0
    2324:	e5 e2       	ldi	r30, 0x25	; 37
    2326:	f0 e0       	ldi	r31, 0x00	; 0
    2328:	90 81       	ld	r25, Z
    232a:	84 e0       	ldi	r24, 0x04	; 4
    232c:	89 27       	eor	r24, r25
    232e:	8c 93       	st	X, r24
}
    2330:	0f 90       	pop	r0
    2332:	0f 90       	pop	r0
    2334:	cf 91       	pop	r28
    2336:	df 91       	pop	r29
    2338:	08 95       	ret

0000233a <blink_4>:
void blink_4(void * t)
{
    233a:	df 93       	push	r29
    233c:	cf 93       	push	r28
    233e:	00 d0       	rcall	.+0      	; 0x2340 <blink_4+0x6>
    2340:	cd b7       	in	r28, 0x3d	; 61
    2342:	de b7       	in	r29, 0x3e	; 62
    2344:	9a 83       	std	Y+2, r25	; 0x02
    2346:	89 83       	std	Y+1, r24	; 0x01
    PORTB ^= 0x02;
    2348:	a5 e2       	ldi	r26, 0x25	; 37
    234a:	b0 e0       	ldi	r27, 0x00	; 0
    234c:	e5 e2       	ldi	r30, 0x25	; 37
    234e:	f0 e0       	ldi	r31, 0x00	; 0
    2350:	90 81       	ld	r25, Z
    2352:	82 e0       	ldi	r24, 0x02	; 2
    2354:	89 27       	eor	r24, r25
    2356:	8c 93       	st	X, r24
}
    2358:	0f 90       	pop	r0
    235a:	0f 90       	pop	r0
    235c:	cf 91       	pop	r28
    235e:	df 91       	pop	r29
    2360:	08 95       	ret

00002362 <blink_12>:
void blink_11(void * t)
{
    PORTC ^= 0x01;
}
void blink_12(void * t)
{
    2362:	df 93       	push	r29
    2364:	cf 93       	push	r28
    2366:	00 d0       	rcall	.+0      	; 0x2368 <blink_12+0x6>
    2368:	cd b7       	in	r28, 0x3d	; 61
    236a:	de b7       	in	r29, 0x3e	; 62
    236c:	9a 83       	std	Y+2, r25	; 0x02
    236e:	89 83       	std	Y+1, r24	; 0x01
    PORTB ^= 0x20;
    2370:	a5 e2       	ldi	r26, 0x25	; 37
    2372:	b0 e0       	ldi	r27, 0x00	; 0
    2374:	e5 e2       	ldi	r30, 0x25	; 37
    2376:	f0 e0       	ldi	r31, 0x00	; 0
    2378:	90 81       	ld	r25, Z
    237a:	80 e2       	ldi	r24, 0x20	; 32
    237c:	89 27       	eor	r24, r25
    237e:	8c 93       	st	X, r24
    blink_G3();
    2380:	ab e2       	ldi	r26, 0x2B	; 43
    2382:	b0 e0       	ldi	r27, 0x00	; 0
    2384:	eb e2       	ldi	r30, 0x2B	; 43
    2386:	f0 e0       	ldi	r31, 0x00	; 0
    2388:	90 81       	ld	r25, Z
    238a:	80 e4       	ldi	r24, 0x40	; 64
    238c:	89 27       	eor	r24, r25
    238e:	8c 93       	st	X, r24
    blink_R3();
    2390:	ab e2       	ldi	r26, 0x2B	; 43
    2392:	b0 e0       	ldi	r27, 0x00	; 0
    2394:	eb e2       	ldi	r30, 0x2B	; 43
    2396:	f0 e0       	ldi	r31, 0x00	; 0
    2398:	90 81       	ld	r25, Z
    239a:	80 e2       	ldi	r24, 0x20	; 32
    239c:	89 27       	eor	r24, r25
    239e:	8c 93       	st	X, r24
}
    23a0:	0f 90       	pop	r0
    23a2:	0f 90       	pop	r0
    23a4:	cf 91       	pop	r28
    23a6:	df 91       	pop	r29
    23a8:	08 95       	ret

000023aa <main0>:
proc_t proc[4];
stack_t stack[4][128];
sig_t sig[2];

void main0(void * t)
{
    23aa:	df 93       	push	r29
    23ac:	cf 93       	push	r28
    23ae:	00 d0       	rcall	.+0      	; 0x23b0 <main0+0x6>
    23b0:	cd b7       	in	r28, 0x3d	; 61
    23b2:	de b7       	in	r29, 0x3e	; 62
    23b4:	9a 83       	std	Y+2, r25	; 0x02
    23b6:	89 83       	std	Y+1, r24	; 0x01
    while(1)
    {
        sig_wait( (sig_t *)sig );
    23b8:	86 eb       	ldi	r24, 0xB6	; 182
    23ba:	94 e0       	ldi	r25, 0x04	; 4
    23bc:	0e 94 98 03 	call	0x730	; 0x730 <sig_wait>
        wait_time(50);
    23c0:	82 e3       	ldi	r24, 0x32	; 50
    23c2:	90 e0       	ldi	r25, 0x00	; 0
    23c4:	0e 94 7c 10 	call	0x20f8	; 0x20f8 <wait_time>
    23c8:	f7 cf       	rjmp	.-18     	; 0x23b8 <main0+0xe>

000023ca <main1>:
    }
}

void main1(void * t)
{
    23ca:	df 93       	push	r29
    23cc:	cf 93       	push	r28
    23ce:	00 d0       	rcall	.+0      	; 0x23d0 <main1+0x6>
    23d0:	cd b7       	in	r28, 0x3d	; 61
    23d2:	de b7       	in	r29, 0x3e	; 62
    23d4:	9a 83       	std	Y+2, r25	; 0x02
    23d6:	89 83       	std	Y+1, r24	; 0x01
    while(1)
    {
        sig_wait((sig_t *)sig+1);
    23d8:	87 ec       	ldi	r24, 0xC7	; 199
    23da:	94 e0       	ldi	r25, 0x04	; 4
    23dc:	0e 94 98 03 	call	0x730	; 0x730 <sig_wait>
        wait_time(50);
    23e0:	82 e3       	ldi	r24, 0x32	; 50
    23e2:	90 e0       	ldi	r25, 0x00	; 0
    23e4:	0e 94 7c 10 	call	0x20f8	; 0x20f8 <wait_time>
    23e8:	f7 cf       	rjmp	.-18     	; 0x23d8 <main1+0xe>

000023ea <main2>:
    }
}

void main2(void * t)
{
    23ea:	df 93       	push	r29
    23ec:	cf 93       	push	r28
    23ee:	00 d0       	rcall	.+0      	; 0x23f0 <main2+0x6>
    23f0:	cd b7       	in	r28, 0x3d	; 61
    23f2:	de b7       	in	r29, 0x3e	; 62
    23f4:	9a 83       	std	Y+2, r25	; 0x02
    23f6:	89 83       	std	Y+1, r24	; 0x01
    while(1)
    {
        sig_wait((sig_t *)sig+1);
    23f8:	87 ec       	ldi	r24, 0xC7	; 199
    23fa:	94 e0       	ldi	r25, 0x04	; 4
    23fc:	0e 94 98 03 	call	0x730	; 0x730 <sig_wait>
        wait_time(50);
    2400:	82 e3       	ldi	r24, 0x32	; 50
    2402:	90 e0       	ldi	r25, 0x00	; 0
    2404:	0e 94 7c 10 	call	0x20f8	; 0x20f8 <wait_time>
        sig_broadcast( (sig_t *)sig );
    2408:	86 eb       	ldi	r24, 0xB6	; 182
    240a:	94 e0       	ldi	r25, 0x04	; 4
    240c:	0e 94 e7 03 	call	0x7ce	; 0x7ce <sig_broadcast>
    2410:	f3 cf       	rjmp	.-26     	; 0x23f8 <main2+0xe>

00002412 <main3>:
    2412:	df 93       	push	r29
    2414:	cf 93       	push	r28
    2416:	00 d0       	rcall	.+0      	; 0x2418 <main3+0x6>
    2418:	cd b7       	in	r28, 0x3d	; 61
    241a:	de b7       	in	r29, 0x3e	; 62
    241c:	9a 83       	std	Y+2, r25	; 0x02
    241e:	89 83       	std	Y+1, r24	; 0x01
    2420:	86 eb       	ldi	r24, 0xB6	; 182
    2422:	94 e0       	ldi	r25, 0x04	; 4
    2424:	0e 94 98 03 	call	0x730	; 0x730 <sig_wait>
    2428:	82 e3       	ldi	r24, 0x32	; 50
    242a:	90 e0       	ldi	r25, 0x00	; 0
    242c:	0e 94 7c 10 	call	0x20f8	; 0x20f8 <wait_time>
    2430:	f7 cf       	rjmp	.-18     	; 0x2420 <main3+0xe>

00002432 <idle_main>:
        wait_time(50);
    }
}

void idle_main(void *arg)
{
    2432:	df 93       	push	r29
    2434:	cf 93       	push	r28
    2436:	00 d0       	rcall	.+0      	; 0x2438 <idle_main+0x6>
    2438:	cd b7       	in	r28, 0x3d	; 61
    243a:	de b7       	in	r29, 0x3e	; 62
    243c:	9a 83       	std	Y+2, r25	; 0x02
    243e:	89 83       	std	Y+1, r24	; 0x01
    while(1)
    {
        wait_time(500);
    2440:	84 ef       	ldi	r24, 0xF4	; 244
    2442:	91 e0       	ldi	r25, 0x01	; 1
    2444:	0e 94 7c 10 	call	0x20f8	; 0x20f8 <wait_time>
        sig_signal((sig_t *)sig + 1);
    2448:	87 ec       	ldi	r24, 0xC7	; 199
    244a:	94 e0       	ldi	r25, 0x04	; 4
    244c:	0e 94 c5 03 	call	0x78a	; 0x78a <sig_signal>
    2450:	f7 cf       	rjmp	.-18     	; 0x2440 <idle_main+0xe>

00002452 <main>:
    }
}

int main(void)
{
    2452:	8f 92       	push	r8
    2454:	af 92       	push	r10
    2456:	bf 92       	push	r11
    2458:	cf 92       	push	r12
    245a:	ef 92       	push	r14
    245c:	ff 92       	push	r15
    245e:	0f 93       	push	r16
    2460:	1f 93       	push	r17
    2462:	df 93       	push	r29
    2464:	cf 93       	push	r28
    2466:	cd b7       	in	r28, 0x3d	; 61
    2468:	de b7       	in	r29, 0x3e	; 62
    init_bugurt();
    246a:	0e 94 57 01 	call	0x2ae	; 0x2ae <init_bugurt>

    TCCR2A = 0x02;//
    246e:	e0 eb       	ldi	r30, 0xB0	; 176
    2470:	f0 e0       	ldi	r31, 0x00	; 0
    2472:	82 e0       	ldi	r24, 0x02	; 2
    2474:	80 83       	st	Z, r24
    TCCR2B = 0x05;// prescaler=128
    2476:	e1 eb       	ldi	r30, 0xB1	; 177
    2478:	f0 e0       	ldi	r31, 0x00	; 0
    247a:	85 e0       	ldi	r24, 0x05	; 5
    247c:	80 83       	st	Z, r24
    OCR2A  = 124;
    247e:	e3 eb       	ldi	r30, 0xB3	; 179
    2480:	f0 e0       	ldi	r31, 0x00	; 0
    2482:	8c e7       	ldi	r24, 0x7C	; 124
    2484:	80 83       	st	Z, r24
    OCR2B  = 0x00;
    2486:	e4 eb       	ldi	r30, 0xB4	; 180
    2488:	f0 e0       	ldi	r31, 0x00	; 0
    248a:	10 82       	st	Z, r1
    TIMSK2 = 0x00; // shceduler not started
    248c:	e0 e7       	ldi	r30, 0x70	; 112
    248e:	f0 e0       	ldi	r31, 0x00	; 0
    2490:	10 82       	st	Z, r1
    TIFR2  = 0x00;
    2492:	e7 e3       	ldi	r30, 0x37	; 55
    2494:	f0 e0       	ldi	r31, 0x00	; 0
    2496:	10 82       	st	Z, r1

    EICRA = 0x08; //falling edge
    2498:	e9 e6       	ldi	r30, 0x69	; 105
    249a:	f0 e0       	ldi	r31, 0x00	; 0
    249c:	88 e0       	ldi	r24, 0x08	; 8
    249e:	80 83       	st	Z, r24
    EIMSK = 0x00; //resched generates int1, mask 0x02
    24a0:	ed e3       	ldi	r30, 0x3D	; 61
    24a2:	f0 e0       	ldi	r31, 0x00	; 0
    24a4:	10 82       	st	Z, r1

    DDRB = 0x3F;
    24a6:	e4 e2       	ldi	r30, 0x24	; 36
    24a8:	f0 e0       	ldi	r31, 0x00	; 0
    24aa:	8f e3       	ldi	r24, 0x3F	; 63
    24ac:	80 83       	st	Z, r24
    PORTB = 0x20;
    24ae:	e5 e2       	ldi	r30, 0x25	; 37
    24b0:	f0 e0       	ldi	r31, 0x00	; 0
    24b2:	80 e2       	ldi	r24, 0x20	; 32
    24b4:	80 83       	st	Z, r24
    DDRC = 0x3F;
    24b6:	e7 e2       	ldi	r30, 0x27	; 39
    24b8:	f0 e0       	ldi	r31, 0x00	; 0
    24ba:	8f e3       	ldi	r24, 0x3F	; 63
    24bc:	80 83       	st	Z, r24
    PORTC = 0x00;
    24be:	e8 e2       	ldi	r30, 0x28	; 40
    24c0:	f0 e0       	ldi	r31, 0x00	; 0
    24c2:	10 82       	st	Z, r1
    DDRD = 0xFE;
    24c4:	ea e2       	ldi	r30, 0x2A	; 42
    24c6:	f0 e0       	ldi	r31, 0x00	; 0
    24c8:	8e ef       	ldi	r24, 0xFE	; 254
    24ca:	80 83       	st	Z, r24
    PORTD = 0x00;
    24cc:	eb e2       	ldi	r30, 0x2B	; 43
    24ce:	f0 e0       	ldi	r31, 0x00	; 0
    24d0:	10 82       	st	Z, r1

    G1_on();
    24d2:	ab e2       	ldi	r26, 0x2B	; 43
    24d4:	b0 e0       	ldi	r27, 0x00	; 0
    24d6:	eb e2       	ldi	r30, 0x2B	; 43
    24d8:	f0 e0       	ldi	r31, 0x00	; 0
    24da:	80 81       	ld	r24, Z
    24dc:	80 61       	ori	r24, 0x10	; 16
    24de:	8c 93       	st	X, r24
    G2_on();
    24e0:	ab e2       	ldi	r26, 0x2B	; 43
    24e2:	b0 e0       	ldi	r27, 0x00	; 0
    24e4:	eb e2       	ldi	r30, 0x2B	; 43
    24e6:	f0 e0       	ldi	r31, 0x00	; 0
    24e8:	80 81       	ld	r24, Z
    24ea:	88 60       	ori	r24, 0x08	; 8
    24ec:	8c 93       	st	X, r24
    R3_on();
    24ee:	ab e2       	ldi	r26, 0x2B	; 43
    24f0:	b0 e0       	ldi	r27, 0x00	; 0
    24f2:	eb e2       	ldi	r30, 0x2B	; 43
    24f4:	f0 e0       	ldi	r31, 0x00	; 0
    24f6:	80 81       	ld	r24, Z
    24f8:	80 62       	ori	r24, 0x20	; 32
    24fa:	8c 93       	st	X, r24

    proc_init_isr(&proc[0], main0, blink_1, blink_1, 0, &stack[0][127], 1, 2, 0);
    24fc:	86 eb       	ldi	r24, 0xB6	; 182
    24fe:	92 e0       	ldi	r25, 0x02	; 2
    2500:	dc 01       	movw	r26, r24
    2502:	a1 58       	subi	r26, 0x81	; 129
    2504:	bf 4f       	sbci	r27, 0xFF	; 255
    2506:	8e ef       	ldi	r24, 0xFE	; 254
    2508:	91 e0       	ldi	r25, 0x01	; 1
    250a:	25 ed       	ldi	r18, 0xD5	; 213
    250c:	31 e1       	ldi	r19, 0x11	; 17
    250e:	41 e6       	ldi	r20, 0x61	; 97
    2510:	51 e1       	ldi	r21, 0x11	; 17
    2512:	e1 e6       	ldi	r30, 0x61	; 97
    2514:	f1 e1       	ldi	r31, 0x11	; 17
    2516:	b9 01       	movw	r22, r18
    2518:	9f 01       	movw	r18, r30
    251a:	00 e0       	ldi	r16, 0x00	; 0
    251c:	10 e0       	ldi	r17, 0x00	; 0
    251e:	7d 01       	movw	r14, r26
    2520:	cc 24       	eor	r12, r12
    2522:	c3 94       	inc	r12
    2524:	aa 24       	eor	r10, r10
    2526:	bb 24       	eor	r11, r11
    2528:	68 94       	set
    252a:	a1 f8       	bld	r10, 1
    252c:	88 24       	eor	r8, r8
    252e:	0e 94 6c 0b 	call	0x16d8	; 0x16d8 <proc_init_isr>
    proc_init_isr(&proc[1], main1, blink_2, blink_2, 0, &stack[1][127], 2, 3, 0);
    2532:	86 eb       	ldi	r24, 0xB6	; 182
    2534:	92 e0       	ldi	r25, 0x02	; 2
    2536:	dc 01       	movw	r26, r24
    2538:	a1 50       	subi	r26, 0x01	; 1
    253a:	bf 4f       	sbci	r27, 0xFF	; 255
    253c:	8c e2       	ldi	r24, 0x2C	; 44
    253e:	92 e0       	ldi	r25, 0x02	; 2
    2540:	25 ee       	ldi	r18, 0xE5	; 229
    2542:	31 e1       	ldi	r19, 0x11	; 17
    2544:	45 e7       	ldi	r20, 0x75	; 117
    2546:	51 e1       	ldi	r21, 0x11	; 17
    2548:	e5 e7       	ldi	r30, 0x75	; 117
    254a:	f1 e1       	ldi	r31, 0x11	; 17
    254c:	b9 01       	movw	r22, r18
    254e:	9f 01       	movw	r18, r30
    2550:	00 e0       	ldi	r16, 0x00	; 0
    2552:	10 e0       	ldi	r17, 0x00	; 0
    2554:	7d 01       	movw	r14, r26
    2556:	cc 24       	eor	r12, r12
    2558:	68 94       	set
    255a:	c1 f8       	bld	r12, 1
    255c:	0f 2e       	mov	r0, r31
    255e:	f3 e0       	ldi	r31, 0x03	; 3
    2560:	af 2e       	mov	r10, r31
    2562:	bb 24       	eor	r11, r11
    2564:	f0 2d       	mov	r31, r0
    2566:	88 24       	eor	r8, r8
    2568:	0e 94 6c 0b 	call	0x16d8	; 0x16d8 <proc_init_isr>
    proc_init_isr(&proc[2], main2, blink_3, blink_3, 0, &stack[2][127], 2, 4, 0);// Типа реального времени
    256c:	86 eb       	ldi	r24, 0xB6	; 182
    256e:	92 e0       	ldi	r25, 0x02	; 2
    2570:	dc 01       	movw	r26, r24
    2572:	a1 58       	subi	r26, 0x81	; 129
    2574:	be 4f       	sbci	r27, 0xFE	; 254
    2576:	8a e5       	ldi	r24, 0x5A	; 90
    2578:	92 e0       	ldi	r25, 0x02	; 2
    257a:	25 ef       	ldi	r18, 0xF5	; 245
    257c:	31 e1       	ldi	r19, 0x11	; 17
    257e:	49 e8       	ldi	r20, 0x89	; 137
    2580:	51 e1       	ldi	r21, 0x11	; 17
    2582:	e9 e8       	ldi	r30, 0x89	; 137
    2584:	f1 e1       	ldi	r31, 0x11	; 17
    2586:	b9 01       	movw	r22, r18
    2588:	9f 01       	movw	r18, r30
    258a:	00 e0       	ldi	r16, 0x00	; 0
    258c:	10 e0       	ldi	r17, 0x00	; 0
    258e:	7d 01       	movw	r14, r26
    2590:	cc 24       	eor	r12, r12
    2592:	68 94       	set
    2594:	c1 f8       	bld	r12, 1
    2596:	aa 24       	eor	r10, r10
    2598:	bb 24       	eor	r11, r11
    259a:	68 94       	set
    259c:	a2 f8       	bld	r10, 2
    259e:	88 24       	eor	r8, r8
    25a0:	0e 94 6c 0b 	call	0x16d8	; 0x16d8 <proc_init_isr>
    proc_init_isr(&proc[3], main3, blink_4, blink_4, 0, &stack[3][127], 3, 4, 0);
    25a4:	86 eb       	ldi	r24, 0xB6	; 182
    25a6:	92 e0       	ldi	r25, 0x02	; 2
    25a8:	dc 01       	movw	r26, r24
    25aa:	a1 50       	subi	r26, 0x01	; 1
    25ac:	be 4f       	sbci	r27, 0xFE	; 254
    25ae:	88 e8       	ldi	r24, 0x88	; 136
    25b0:	92 e0       	ldi	r25, 0x02	; 2
    25b2:	29 e0       	ldi	r18, 0x09	; 9
    25b4:	32 e1       	ldi	r19, 0x12	; 18
    25b6:	4d e9       	ldi	r20, 0x9D	; 157
    25b8:	51 e1       	ldi	r21, 0x11	; 17
    25ba:	ed e9       	ldi	r30, 0x9D	; 157
    25bc:	f1 e1       	ldi	r31, 0x11	; 17
    25be:	b9 01       	movw	r22, r18
    25c0:	9f 01       	movw	r18, r30
    25c2:	00 e0       	ldi	r16, 0x00	; 0
    25c4:	10 e0       	ldi	r17, 0x00	; 0
    25c6:	7d 01       	movw	r14, r26
    25c8:	0f 2e       	mov	r0, r31
    25ca:	f3 e0       	ldi	r31, 0x03	; 3
    25cc:	cf 2e       	mov	r12, r31
    25ce:	f0 2d       	mov	r31, r0
    25d0:	aa 24       	eor	r10, r10
    25d2:	bb 24       	eor	r11, r11
    25d4:	68 94       	set
    25d6:	a2 f8       	bld	r10, 2
    25d8:	88 24       	eor	r8, r8
    25da:	0e 94 6c 0b 	call	0x16d8	; 0x16d8 <proc_init_isr>
    kernel.idle.rs_hook = blink_12;
    25de:	81 eb       	ldi	r24, 0xB1	; 177
    25e0:	91 e1       	ldi	r25, 0x11	; 17
    25e2:	90 93 f3 01 	sts	0x01F3, r25
    25e6:	80 93 f2 01 	sts	0x01F2, r24
    kernel.idle.sv_hook = blink_12;
    25ea:	81 eb       	ldi	r24, 0xB1	; 177
    25ec:	91 e1       	ldi	r25, 0x11	; 17
    25ee:	90 93 f1 01 	sts	0x01F1, r25
    25f2:	80 93 f0 01 	sts	0x01F0, r24

    proc_run_isr(&proc[0]);
    25f6:	8e ef       	ldi	r24, 0xFE	; 254
    25f8:	91 e0       	ldi	r25, 0x01	; 1
    25fa:	0e 94 12 0c 	call	0x1824	; 0x1824 <proc_run_isr>
    proc_run_isr(&proc[1]);
    25fe:	8c e2       	ldi	r24, 0x2C	; 44
    2600:	92 e0       	ldi	r25, 0x02	; 2
    2602:	0e 94 12 0c 	call	0x1824	; 0x1824 <proc_run_isr>
    proc_run_isr(&proc[2]);
    2606:	8a e5       	ldi	r24, 0x5A	; 90
    2608:	92 e0       	ldi	r25, 0x02	; 2
    260a:	0e 94 12 0c 	call	0x1824	; 0x1824 <proc_run_isr>
    proc_run_isr(&proc[3]);
    260e:	88 e8       	ldi	r24, 0x88	; 136
    2610:	92 e0       	ldi	r25, 0x02	; 2
    2612:	0e 94 12 0c 	call	0x1824	; 0x1824 <proc_run_isr>

    sig_init_isr( (sig_t *)sig );
    2616:	86 eb       	ldi	r24, 0xB6	; 182
    2618:	94 e0       	ldi	r25, 0x04	; 4
    261a:	0e 94 ce 0f 	call	0x1f9c	; 0x1f9c <sig_init_isr>
    sig_init_isr( (sig_t *)sig+1 );
    261e:	87 ec       	ldi	r24, 0xC7	; 199
    2620:	94 e0       	ldi	r25, 0x04	; 4
    2622:	0e 94 ce 0f 	call	0x1f9c	; 0x1f9c <sig_init_isr>



    start_bugurt();
    2626:	0e 94 7c 01 	call	0x2f8	; 0x2f8 <start_bugurt>
    // Insert code

    return 0;
    262a:	80 e0       	ldi	r24, 0x00	; 0
    262c:	90 e0       	ldi	r25, 0x00	; 0
}
    262e:	cf 91       	pop	r28
    2630:	df 91       	pop	r29
    2632:	1f 91       	pop	r17
    2634:	0f 91       	pop	r16
    2636:	ff 90       	pop	r15
    2638:	ef 90       	pop	r14
    263a:	cf 90       	pop	r12
    263c:	bf 90       	pop	r11
    263e:	af 90       	pop	r10
    2640:	8f 90       	pop	r8
    2642:	08 95       	ret

00002644 <_exit>:
    2644:	f8 94       	cli

00002646 <__stop_program>:
    2646:	ff cf       	rjmp	.-2      	; 0x2646 <__stop_program>
