
bin/Release/arduino328-test-sig.elf:     file format elf32-avr

Sections:
Idx Name          Size      VMA       LMA       File off  Algn
  0 .data         00000002  00800100  00001384  00001418  2**0
                  CONTENTS, ALLOC, LOAD, DATA
  1 .text         00001384  00000000  00000000  00000094  2**1
                  CONTENTS, ALLOC, LOAD, READONLY, CODE
  2 .bss          000003d3  00800102  00800102  0000141a  2**0
                  ALLOC
  3 .stab         000006b4  00000000  00000000  0000141c  2**2
                  CONTENTS, READONLY, DEBUGGING
  4 .stabstr      00000054  00000000  00000000  00001ad0  2**0
                  CONTENTS, READONLY, DEBUGGING

Disassembly of section .text:

00000000 <__vectors>:
       0:	0c 94 46 00 	jmp	0x8c	; 0x8c <__ctors_end>
       4:	0c 94 63 00 	jmp	0xc6	; 0xc6 <__bad_interrupt>
       8:	0c 94 80 02 	jmp	0x500	; 0x500 <__vector_2>
       c:	0c 94 63 00 	jmp	0xc6	; 0xc6 <__bad_interrupt>
      10:	0c 94 63 00 	jmp	0xc6	; 0xc6 <__bad_interrupt>
      14:	0c 94 63 00 	jmp	0xc6	; 0xc6 <__bad_interrupt>
      18:	0c 94 63 00 	jmp	0xc6	; 0xc6 <__bad_interrupt>
      1c:	0c 94 fc 00 	jmp	0x1f8	; 0x1f8 <__vector_7>
      20:	0c 94 63 00 	jmp	0xc6	; 0xc6 <__bad_interrupt>
      24:	0c 94 63 00 	jmp	0xc6	; 0xc6 <__bad_interrupt>
      28:	0c 94 63 00 	jmp	0xc6	; 0xc6 <__bad_interrupt>
      2c:	0c 94 63 00 	jmp	0xc6	; 0xc6 <__bad_interrupt>
      30:	0c 94 63 00 	jmp	0xc6	; 0xc6 <__bad_interrupt>
      34:	0c 94 63 00 	jmp	0xc6	; 0xc6 <__bad_interrupt>
      38:	0c 94 63 00 	jmp	0xc6	; 0xc6 <__bad_interrupt>
      3c:	0c 94 63 00 	jmp	0xc6	; 0xc6 <__bad_interrupt>
      40:	0c 94 63 00 	jmp	0xc6	; 0xc6 <__bad_interrupt>
      44:	0c 94 63 00 	jmp	0xc6	; 0xc6 <__bad_interrupt>
      48:	0c 94 63 00 	jmp	0xc6	; 0xc6 <__bad_interrupt>
      4c:	0c 94 63 00 	jmp	0xc6	; 0xc6 <__bad_interrupt>
      50:	0c 94 63 00 	jmp	0xc6	; 0xc6 <__bad_interrupt>
      54:	0c 94 63 00 	jmp	0xc6	; 0xc6 <__bad_interrupt>
      58:	0c 94 63 00 	jmp	0xc6	; 0xc6 <__bad_interrupt>
      5c:	0c 94 63 00 	jmp	0xc6	; 0xc6 <__bad_interrupt>
      60:	0c 94 63 00 	jmp	0xc6	; 0xc6 <__bad_interrupt>
      64:	0c 94 63 00 	jmp	0xc6	; 0xc6 <__bad_interrupt>

00000068 <syscall_routine>:
      68:	05 02 f8 01 eb 01 de 01 d7 01 c6 01 c1 01 be 01     ................
      78:	bb 01 b8 01 b5 01 ad 01 a0 01 9d 01 96 01 89 01     ................
      88:	7c 01 79 01                                         |.y.

0000008c <__ctors_end>:
      8c:	11 24       	eor	r1, r1
      8e:	1f be       	out	0x3f, r1	; 63
      90:	cf ef       	ldi	r28, 0xFF	; 255
      92:	d8 e0       	ldi	r29, 0x08	; 8
      94:	de bf       	out	0x3e, r29	; 62
      96:	cd bf       	out	0x3d, r28	; 61

00000098 <__do_copy_data>:
      98:	11 e0       	ldi	r17, 0x01	; 1
      9a:	a0 e0       	ldi	r26, 0x00	; 0
      9c:	b1 e0       	ldi	r27, 0x01	; 1
      9e:	e4 e8       	ldi	r30, 0x84	; 132
      a0:	f3 e1       	ldi	r31, 0x13	; 19
      a2:	02 c0       	rjmp	.+4      	; 0xa8 <.do_copy_data_start>

000000a4 <.do_copy_data_loop>:
      a4:	05 90       	lpm	r0, Z+
      a6:	0d 92       	st	X+, r0

000000a8 <.do_copy_data_start>:
      a8:	a2 30       	cpi	r26, 0x02	; 2
      aa:	b1 07       	cpc	r27, r17
      ac:	d9 f7       	brne	.-10     	; 0xa4 <.do_copy_data_loop>

000000ae <__do_clear_bss>:
      ae:	14 e0       	ldi	r17, 0x04	; 4
      b0:	a2 e0       	ldi	r26, 0x02	; 2
      b2:	b1 e0       	ldi	r27, 0x01	; 1
      b4:	01 c0       	rjmp	.+2      	; 0xb8 <.do_clear_bss_start>

000000b6 <.do_clear_bss_loop>:
      b6:	1d 92       	st	X+, r1

000000b8 <.do_clear_bss_start>:
      b8:	a5 3d       	cpi	r26, 0xD5	; 213
      ba:	b1 07       	cpc	r27, r17
      bc:	e1 f7       	brne	.-8      	; 0xb6 <.do_clear_bss_loop>
      be:	0e 94 db 08 	call	0x11b6	; 0x11b6 <main>
      c2:	0c 94 c0 09 	jmp	0x1380	; 0x1380 <_exit>

000000c6 <__bad_interrupt>:
      c6:	0c 94 00 00 	jmp	0	; 0x0 <__vectors>

000000ca <osbme_store_context>:
      ca:	2f 92       	push	r2
      cc:	2f b6       	in	r2, 0x3f	; 63
      ce:	2f 92       	push	r2
      d0:	3f 92       	push	r3
      d2:	4f 92       	push	r4
      d4:	5f 92       	push	r5
      d6:	6f 92       	push	r6
      d8:	7f 92       	push	r7
      da:	8f 92       	push	r8
      dc:	9f 92       	push	r9
      de:	af 92       	push	r10
      e0:	bf 92       	push	r11
      e2:	cf 92       	push	r12
      e4:	df 92       	push	r13
      e6:	ef 92       	push	r14
      e8:	ff 92       	push	r15
      ea:	0f 93       	push	r16
      ec:	1f 93       	push	r17
      ee:	2f 93       	push	r18
      f0:	3f 93       	push	r19
      f2:	4f 93       	push	r20
      f4:	5f 93       	push	r21
      f6:	6f 93       	push	r22
      f8:	7f 93       	push	r23
      fa:	8f 93       	push	r24
      fc:	9f 93       	push	r25
      fe:	af 93       	push	r26
     100:	bf 93       	push	r27
     102:	cf 93       	push	r28
     104:	df 93       	push	r29
     106:	ef 93       	push	r30
     108:	ff 93       	push	r31
     10a:	ed b7       	in	r30, 0x3d	; 61
     10c:	fe b7       	in	r31, 0x3e	; 62
     10e:	21 a1       	ldd	r18, Z+33	; 0x21
     110:	30 a1       	ldd	r19, Z+32	; 0x20
     112:	01 a2       	std	Z+33, r0	; 0x21
     114:	10 a2       	std	Z+32, r1	; 0x20
     116:	11 24       	eor	r1, r1
     118:	8d b7       	in	r24, 0x3d	; 61
     11a:	9e b7       	in	r25, 0x3e	; 62
     11c:	2f 93       	push	r18
     11e:	3f 93       	push	r19
     120:	08 95       	ret

00000122 <osbme_load_context>:
     122:	3f 91       	pop	r19
     124:	2f 91       	pop	r18
     126:	9e bf       	out	0x3e, r25	; 62
     128:	8d bf       	out	0x3d, r24	; 61
     12a:	fe b7       	in	r31, 0x3e	; 62
     12c:	ed b7       	in	r30, 0x3d	; 61
     12e:	10 a0       	ldd	r1, Z+32	; 0x20
     130:	01 a0       	ldd	r0, Z+33	; 0x21
     132:	30 a3       	std	Z+32, r19	; 0x20
     134:	21 a3       	std	Z+33, r18	; 0x21
     136:	ff 91       	pop	r31
     138:	ef 91       	pop	r30
     13a:	df 91       	pop	r29
     13c:	cf 91       	pop	r28
     13e:	bf 91       	pop	r27
     140:	af 91       	pop	r26
     142:	9f 91       	pop	r25
     144:	8f 91       	pop	r24
     146:	7f 91       	pop	r23
     148:	6f 91       	pop	r22
     14a:	5f 91       	pop	r21
     14c:	4f 91       	pop	r20
     14e:	3f 91       	pop	r19
     150:	2f 91       	pop	r18
     152:	1f 91       	pop	r17
     154:	0f 91       	pop	r16
     156:	ff 90       	pop	r15
     158:	ef 90       	pop	r14
     15a:	df 90       	pop	r13
     15c:	cf 90       	pop	r12
     15e:	bf 90       	pop	r11
     160:	af 90       	pop	r10
     162:	9f 90       	pop	r9
     164:	8f 90       	pop	r8
     166:	7f 90       	pop	r7
     168:	6f 90       	pop	r6
     16a:	5f 90       	pop	r5
     16c:	4f 90       	pop	r4
     16e:	3f 90       	pop	r3
     170:	2f 90       	pop	r2
     172:	2f be       	out	0x3f, r2	; 63
     174:	2f 90       	pop	r2
     176:	08 95       	ret

00000178 <disable_interrupts>:
     178:	f8 94       	cli
     17a:	08 95       	ret

0000017c <enable_interrupts>:
     17c:	78 94       	sei
     17e:	08 95       	ret

00000180 <current_proc>:
     180:	80 91 9f 01 	lds	r24, 0x019F
     184:	90 91 a0 01 	lds	r25, 0x01A0
     188:	08 95       	ret

0000018a <resched>:
     18a:	81 e0       	ldi	r24, 0x01	; 1
     18c:	80 93 00 01 	sts	0x0100, r24
     190:	08 95       	ret

00000192 <init_bugurt>:
     192:	f8 94       	cli
     194:	0e 94 b9 04 	call	0x972	; 0x972 <kernel_init>
     198:	88 e9       	ldi	r24, 0x98	; 152
     19a:	91 e0       	ldi	r25, 0x01	; 1
     19c:	6f e8       	ldi	r22, 0x8F	; 143
     19e:	79 e0       	ldi	r23, 0x09	; 9
     1a0:	40 e0       	ldi	r20, 0x00	; 0
     1a2:	50 e0       	ldi	r21, 0x00	; 0
     1a4:	0e 94 93 02 	call	0x526	; 0x526 <osbme_init_stack>
     1a8:	90 93 9c 01 	sts	0x019C, r25
     1ac:	80 93 9b 01 	sts	0x019B, r24
     1b0:	90 93 f6 01 	sts	0x01F6, r25
     1b4:	80 93 f5 01 	sts	0x01F5, r24
     1b8:	81 e0       	ldi	r24, 0x01	; 1
     1ba:	90 e0       	ldi	r25, 0x00	; 0
     1bc:	90 93 c8 01 	sts	0x01C8, r25
     1c0:	80 93 c7 01 	sts	0x01C7, r24
     1c4:	08 95       	ret

000001c6 <proc_stack_init>:
     1c6:	6a e6       	ldi	r22, 0x6A	; 106
     1c8:	72 e0       	ldi	r23, 0x02	; 2
     1ca:	0e 94 93 02 	call	0x526	; 0x526 <osbme_init_stack>
     1ce:	08 95       	ret

000001d0 <__vector_7_func>:
     1d0:	80 91 f9 01 	lds	r24, 0x01F9
     1d4:	90 91 fa 01 	lds	r25, 0x01FA
     1d8:	01 96       	adiw	r24, 0x01	; 1
     1da:	90 93 fa 01 	sts	0x01FA, r25
     1de:	80 93 f9 01 	sts	0x01F9, r24
     1e2:	80 91 9b 01 	lds	r24, 0x019B
     1e6:	90 91 9c 01 	lds	r25, 0x019C
     1ea:	0e 94 20 07 	call	0xe40	; 0xe40 <sched_schedule>
     1ee:	90 93 9c 01 	sts	0x019C, r25
     1f2:	80 93 9b 01 	sts	0x019B, r24
     1f6:	08 95       	ret

000001f8 <__vector_7>:
     1f8:	0e 94 65 00 	call	0xca	; 0xca <osbme_store_context>
     1fc:	90 93 9c 01 	sts	0x019C, r25
     200:	80 93 9b 01 	sts	0x019B, r24
     204:	88 ee       	ldi	r24, 0xE8	; 232
     206:	90 e0       	ldi	r25, 0x00	; 0
     208:	90 93 9a 01 	sts	0x019A, r25
     20c:	80 93 99 01 	sts	0x0199, r24
     210:	80 91 9d 01 	lds	r24, 0x019D
     214:	90 91 9e 01 	lds	r25, 0x019E
     218:	0e 94 91 00 	call	0x122	; 0x122 <osbme_load_context>
     21c:	08 95       	ret

0000021e <kernel_process_switch>:
     21e:	0e 94 65 00 	call	0xca	; 0xca <osbme_store_context>
     222:	90 93 9e 01 	sts	0x019E, r25
     226:	80 93 9d 01 	sts	0x019D, r24
     22a:	80 91 9b 01 	lds	r24, 0x019B
     22e:	90 91 9c 01 	lds	r25, 0x019C
     232:	0e 94 91 00 	call	0x122	; 0x122 <osbme_load_context>
     236:	18 95       	reti

00000238 <kernel_thread>:
     238:	80 91 00 01 	lds	r24, 0x0100
     23c:	88 23       	and	r24, r24
     23e:	61 f0       	breq	.+24     	; 0x258 <kernel_thread+0x20>
     240:	10 92 00 01 	sts	0x0100, r1
     244:	80 91 9b 01 	lds	r24, 0x019B
     248:	90 91 9c 01 	lds	r25, 0x019C
     24c:	0e 94 e5 06 	call	0xdca	; 0xdca <sched_reschedule>
     250:	90 93 9c 01 	sts	0x019C, r25
     254:	80 93 9b 01 	sts	0x019B, r24
     258:	0e 94 0f 01 	call	0x21e	; 0x21e <kernel_process_switch>
     25c:	80 91 05 01 	lds	r24, 0x0105
     260:	81 ff       	sbrs	r24, 1
     262:	07 c0       	rjmp	.+14     	; 0x272 <kernel_thread+0x3a>
     264:	0e 94 5d 01 	call	0x2ba	; 0x2ba <syscall_data_get>
     268:	80 91 05 01 	lds	r24, 0x0105
     26c:	8d 7f       	andi	r24, 0xFD	; 253
     26e:	80 93 05 01 	sts	0x0105, r24
     272:	e0 91 99 01 	lds	r30, 0x0199
     276:	f0 91 9a 01 	lds	r31, 0x019A
     27a:	09 95       	icall
     27c:	dd cf       	rjmp	.-70     	; 0x238 <kernel_thread>

0000027e <start_bugurt>:
     27e:	0e 94 b3 08 	call	0x1166	; 0x1166 <start_scheduler>
     282:	10 92 c8 01 	sts	0x01C8, r1
     286:	10 92 c7 01 	sts	0x01C7, r1
     28a:	0e 94 1c 01 	call	0x238	; 0x238 <kernel_thread>
     28e:	08 95       	ret

00000290 <do_syscall>:
     290:	80 91 02 01 	lds	r24, 0x0102
     294:	88 23       	and	r24, r24
     296:	81 f0       	breq	.+32     	; 0x2b8 <do_syscall+0x28>
     298:	90 e0       	ldi	r25, 0x00	; 0
     29a:	88 0f       	add	r24, r24
     29c:	99 1f       	adc	r25, r25
     29e:	88 59       	subi	r24, 0x98	; 152
     2a0:	9f 4f       	sbci	r25, 0xFF	; 255
     2a2:	fc 01       	movw	r30, r24
     2a4:	25 91       	lpm	r18, Z+
     2a6:	34 91       	lpm	r19, Z+
     2a8:	80 91 03 01 	lds	r24, 0x0103
     2ac:	90 91 04 01 	lds	r25, 0x0104
     2b0:	f9 01       	movw	r30, r18
     2b2:	09 95       	icall
     2b4:	10 92 02 01 	sts	0x0102, r1
     2b8:	08 95       	ret

000002ba <syscall_data_get>:
     2ba:	e0 91 9b 01 	lds	r30, 0x019B
     2be:	f0 91 9c 01 	lds	r31, 0x019C
     2c2:	97 81       	ldd	r25, Z+7	; 0x07
     2c4:	80 e0       	ldi	r24, 0x00	; 0
     2c6:	e0 85       	ldd	r30, Z+8	; 0x08
     2c8:	f0 e0       	ldi	r31, 0x00	; 0
     2ca:	e8 2b       	or	r30, r24
     2cc:	f9 2b       	or	r31, r25
     2ce:	80 81       	ld	r24, Z
     2d0:	80 93 02 01 	sts	0x0102, r24
     2d4:	81 81       	ldd	r24, Z+1	; 0x01
     2d6:	92 81       	ldd	r25, Z+2	; 0x02
     2d8:	90 93 04 01 	sts	0x0104, r25
     2dc:	80 93 03 01 	sts	0x0103, r24
     2e0:	08 95       	ret

000002e2 <__vector_2_func>:
     2e2:	0e 94 48 01 	call	0x290	; 0x290 <do_syscall>
     2e6:	80 91 05 01 	lds	r24, 0x0105
     2ea:	8e 7f       	andi	r24, 0xFE	; 254
     2ec:	80 93 05 01 	sts	0x0105, r24
     2f0:	08 95       	ret

000002f2 <scall_mutex_unlock>:
     2f2:	0e 94 ea 04 	call	0x9d4	; 0x9d4 <_mutex_unlock>
     2f6:	08 95       	ret

000002f8 <scall_mutex_try_lock>:
     2f8:	0f 93       	push	r16
     2fa:	1f 93       	push	r17
     2fc:	8c 01       	movw	r16, r24
     2fe:	fc 01       	movw	r30, r24
     300:	80 81       	ld	r24, Z
     302:	91 81       	ldd	r25, Z+1	; 0x01
     304:	0e 94 24 05 	call	0xa48	; 0xa48 <_mutex_try_lock>
     308:	f8 01       	movw	r30, r16
     30a:	82 83       	std	Z+2, r24	; 0x02
     30c:	1f 91       	pop	r17
     30e:	0f 91       	pop	r16
     310:	08 95       	ret

00000312 <scall_mutex_lock>:
     312:	0f 93       	push	r16
     314:	1f 93       	push	r17
     316:	8c 01       	movw	r16, r24
     318:	fc 01       	movw	r30, r24
     31a:	80 81       	ld	r24, Z
     31c:	91 81       	ldd	r25, Z+1	; 0x01
     31e:	0e 94 3e 05 	call	0xa7c	; 0xa7c <_mutex_lock>
     322:	f8 01       	movw	r30, r16
     324:	82 83       	std	Z+2, r24	; 0x02
     326:	1f 91       	pop	r17
     328:	0f 91       	pop	r16
     32a:	08 95       	ret

0000032c <scall_mutex_init>:
     32c:	fc 01       	movw	r30, r24
     32e:	80 81       	ld	r24, Z
     330:	91 81       	ldd	r25, Z+1	; 0x01
     332:	62 81       	ldd	r22, Z+2	; 0x02
     334:	0e 94 69 05 	call	0xad2	; 0xad2 <mutex_init_isr>
     338:	08 95       	ret

0000033a <scall_sem_unlock>:
     33a:	0e 94 ad 07 	call	0xf5a	; 0xf5a <_sem_unlock>
     33e:	08 95       	ret

00000340 <scall_sem_lock>:
     340:	0f 93       	push	r16
     342:	1f 93       	push	r17
     344:	8c 01       	movw	r16, r24
     346:	fc 01       	movw	r30, r24
     348:	80 81       	ld	r24, Z
     34a:	91 81       	ldd	r25, Z+1	; 0x01
     34c:	0e 94 ca 07 	call	0xf94	; 0xf94 <_sem_lock>
     350:	f8 01       	movw	r30, r16
     352:	82 83       	std	Z+2, r24	; 0x02
     354:	1f 91       	pop	r17
     356:	0f 91       	pop	r16
     358:	08 95       	ret

0000035a <scall_sem_init>:
     35a:	fc 01       	movw	r30, r24
     35c:	62 81       	ldd	r22, Z+2	; 0x02
     35e:	73 81       	ldd	r23, Z+3	; 0x03
     360:	80 81       	ld	r24, Z
     362:	91 81       	ldd	r25, Z+1	; 0x01
     364:	0e 94 ec 07 	call	0xfd8	; 0xfd8 <sem_init_isr>
     368:	08 95       	ret

0000036a <scall_sig_broadcast>:
     36a:	0e 94 fc 07 	call	0xff8	; 0xff8 <sig_broadcast_isr>
     36e:	08 95       	ret

00000370 <scall_sig_signal>:
     370:	0e 94 05 08 	call	0x100a	; 0x100a <sig_signal_isr>
     374:	08 95       	ret

00000376 <scall_sig_wait>:
     376:	0e 94 1f 08 	call	0x103e	; 0x103e <sig_wait_stage_1_isr>
     37a:	08 95       	ret

0000037c <scall_sig_init>:
     37c:	0e 94 36 08 	call	0x106c	; 0x106c <sig_init_isr>
     380:	08 95       	ret

00000382 <scall_proc_flag_stop>:
     382:	fc 01       	movw	r30, r24
     384:	80 81       	ld	r24, Z
     386:	0e 94 57 06 	call	0xcae	; 0xcae <_proc_flag_stop_isr>
     38a:	08 95       	ret

0000038c <scall_proc_terminate>:
     38c:	fc 01       	movw	r30, r24
     38e:	83 85       	ldd	r24, Z+11	; 0x0b
     390:	82 ff       	sbrs	r24, 2
     392:	02 c0       	rjmp	.+4      	; 0x398 <scall_proc_terminate+0xc>
     394:	80 68       	ori	r24, 0x80	; 128
     396:	01 c0       	rjmp	.+2      	; 0x39a <scall_proc_terminate+0xe>
     398:	80 64       	ori	r24, 0x40	; 64
     39a:	83 87       	std	Z+11, r24	; 0x0b
     39c:	83 85       	ldd	r24, Z+11	; 0x0b
     39e:	8d 7d       	andi	r24, 0xDD	; 221
     3a0:	83 87       	std	Z+11, r24	; 0x0b
     3a2:	cf 01       	movw	r24, r30
     3a4:	0e 94 9f 03 	call	0x73e	; 0x73e <gitem_cut>
     3a8:	0e 94 c5 00 	call	0x18a	; 0x18a <resched>
     3ac:	08 95       	ret

000003ae <scall_proc_self_stop>:
     3ae:	80 91 9f 01 	lds	r24, 0x019F
     3b2:	90 91 a0 01 	lds	r25, 0x01A0
     3b6:	0e 94 04 06 	call	0xc08	; 0xc08 <_proc_stop>
     3ba:	08 95       	ret

000003bc <scall_proc_stop>:
     3bc:	0f 93       	push	r16
     3be:	1f 93       	push	r17
     3c0:	8c 01       	movw	r16, r24
     3c2:	fc 01       	movw	r30, r24
     3c4:	80 81       	ld	r24, Z
     3c6:	91 81       	ldd	r25, Z+1	; 0x01
     3c8:	0e 94 0e 06 	call	0xc1c	; 0xc1c <proc_stop_isr>
     3cc:	f8 01       	movw	r30, r16
     3ce:	82 83       	std	Z+2, r24	; 0x02
     3d0:	1f 91       	pop	r17
     3d2:	0f 91       	pop	r16
     3d4:	08 95       	ret

000003d6 <scall_proc_restart>:
     3d6:	0f 93       	push	r16
     3d8:	1f 93       	push	r17
     3da:	8c 01       	movw	r16, r24
     3dc:	fc 01       	movw	r30, r24
     3de:	80 81       	ld	r24, Z
     3e0:	91 81       	ldd	r25, Z+1	; 0x01
     3e2:	0e 94 6a 06 	call	0xcd4	; 0xcd4 <proc_restart_isr>
     3e6:	f8 01       	movw	r30, r16
     3e8:	82 83       	std	Z+2, r24	; 0x02
     3ea:	1f 91       	pop	r17
     3ec:	0f 91       	pop	r16
     3ee:	08 95       	ret

000003f0 <scall_proc_run>:
     3f0:	0f 93       	push	r16
     3f2:	1f 93       	push	r17
     3f4:	8c 01       	movw	r16, r24
     3f6:	fc 01       	movw	r30, r24
     3f8:	80 81       	ld	r24, Z
     3fa:	91 81       	ldd	r25, Z+1	; 0x01
     3fc:	0e 94 31 06 	call	0xc62	; 0xc62 <proc_run_isr>
     400:	f8 01       	movw	r30, r16
     402:	82 83       	std	Z+2, r24	; 0x02
     404:	1f 91       	pop	r17
     406:	0f 91       	pop	r16
     408:	08 95       	ret

0000040a <scall_proc_init>:
     40a:	8f 92       	push	r8
     40c:	af 92       	push	r10
     40e:	bf 92       	push	r11
     410:	cf 92       	push	r12
     412:	ef 92       	push	r14
     414:	ff 92       	push	r15
     416:	0f 93       	push	r16
     418:	1f 93       	push	r17
     41a:	fc 01       	movw	r30, r24
     41c:	62 81       	ldd	r22, Z+2	; 0x02
     41e:	73 81       	ldd	r23, Z+3	; 0x03
     420:	44 81       	ldd	r20, Z+4	; 0x04
     422:	55 81       	ldd	r21, Z+5	; 0x05
     424:	26 81       	ldd	r18, Z+6	; 0x06
     426:	37 81       	ldd	r19, Z+7	; 0x07
     428:	00 85       	ldd	r16, Z+8	; 0x08
     42a:	11 85       	ldd	r17, Z+9	; 0x09
     42c:	e2 84       	ldd	r14, Z+10	; 0x0a
     42e:	f3 84       	ldd	r15, Z+11	; 0x0b
     430:	a5 84       	ldd	r10, Z+13	; 0x0d
     432:	b6 84       	ldd	r11, Z+14	; 0x0e
     434:	80 81       	ld	r24, Z
     436:	91 81       	ldd	r25, Z+1	; 0x01
     438:	c4 84       	ldd	r12, Z+12	; 0x0c
     43a:	87 84       	ldd	r8, Z+15	; 0x0f
     43c:	0e 94 8f 06 	call	0xd1e	; 0xd1e <proc_init_isr>
     440:	1f 91       	pop	r17
     442:	0f 91       	pop	r16
     444:	ff 90       	pop	r15
     446:	ef 90       	pop	r14
     448:	cf 90       	pop	r12
     44a:	bf 90       	pop	r11
     44c:	af 90       	pop	r10
     44e:	8f 90       	pop	r8
     450:	08 95       	ret

00000452 <_syscall>:
     452:	0f 93       	push	r16
     454:	1f 93       	push	r17
     456:	18 2f       	mov	r17, r24
     458:	09 2f       	mov	r16, r25
     45a:	f8 94       	cli
     45c:	83 e0       	ldi	r24, 0x03	; 3
     45e:	80 93 05 01 	sts	0x0105, r24
     462:	0e 94 ae 08 	call	0x115c	; 0x115c <raise_syscall_interrupt>
     466:	78 94       	sei
     468:	81 2f       	mov	r24, r17
     46a:	90 2f       	mov	r25, r16
     46c:	1f 91       	pop	r17
     46e:	0f 91       	pop	r16
     470:	08 95       	ret

00000472 <syscall>:
     472:	80 93 16 01 	sts	0x0116, r24
     476:	70 93 18 01 	sts	0x0118, r23
     47a:	60 93 17 01 	sts	0x0117, r22
     47e:	86 e1       	ldi	r24, 0x16	; 22
     480:	91 e0       	ldi	r25, 0x01	; 1
     482:	0e 94 29 02 	call	0x452	; 0x452 <_syscall>
     486:	00 00       	nop
     488:	00 00       	nop
     48a:	00 00       	nop
     48c:	80 91 05 01 	lds	r24, 0x0105
     490:	80 fd       	sbrc	r24, 0
     492:	ff cf       	rjmp	.-2      	; 0x492 <syscall+0x20>
     494:	08 95       	ret

00000496 <sig_broadcast>:
     496:	bc 01       	movw	r22, r24
     498:	8a e0       	ldi	r24, 0x0A	; 10
     49a:	0e 94 39 02 	call	0x472	; 0x472 <syscall>
     49e:	08 95       	ret

000004a0 <sig_signal>:
     4a0:	bc 01       	movw	r22, r24
     4a2:	89 e0       	ldi	r24, 0x09	; 9
     4a4:	0e 94 39 02 	call	0x472	; 0x472 <syscall>
     4a8:	08 95       	ret

000004aa <sig_wait>:
     4aa:	df 93       	push	r29
     4ac:	cf 93       	push	r28
     4ae:	0f 92       	push	r0
     4b0:	cd b7       	in	r28, 0x3d	; 61
     4b2:	de b7       	in	r29, 0x3e	; 62
     4b4:	bc 01       	movw	r22, r24
     4b6:	8f ee       	ldi	r24, 0xEF	; 239
     4b8:	89 83       	std	Y+1, r24	; 0x01
     4ba:	88 e0       	ldi	r24, 0x08	; 8
     4bc:	0e 94 39 02 	call	0x472	; 0x472 <syscall>
     4c0:	86 e0       	ldi	r24, 0x06	; 6
     4c2:	be 01       	movw	r22, r28
     4c4:	6f 5f       	subi	r22, 0xFF	; 255
     4c6:	7f 4f       	sbci	r23, 0xFF	; 255
     4c8:	0e 94 39 02 	call	0x472	; 0x472 <syscall>
     4cc:	0f 90       	pop	r0
     4ce:	cf 91       	pop	r28
     4d0:	df 91       	pop	r29
     4d2:	08 95       	ret

000004d4 <proc_run_wrapper>:
     4d4:	0f 93       	push	r16
     4d6:	1f 93       	push	r17
     4d8:	8c 01       	movw	r16, r24
     4da:	f8 94       	cli
     4dc:	78 94       	sei
     4de:	dc 01       	movw	r26, r24
     4e0:	92 96       	adiw	r26, 0x22	; 34
     4e2:	ed 91       	ld	r30, X+
     4e4:	fc 91       	ld	r31, X
     4e6:	93 97       	sbiw	r26, 0x23	; 35
     4e8:	98 96       	adiw	r26, 0x28	; 40
     4ea:	8d 91       	ld	r24, X+
     4ec:	9c 91       	ld	r25, X
     4ee:	99 97       	sbiw	r26, 0x29	; 41
     4f0:	09 95       	icall
     4f2:	85 e0       	ldi	r24, 0x05	; 5
     4f4:	b8 01       	movw	r22, r16
     4f6:	0e 94 39 02 	call	0x472	; 0x472 <syscall>
     4fa:	1f 91       	pop	r17
     4fc:	0f 91       	pop	r16
     4fe:	08 95       	ret

00000500 <__vector_2>:
     500:	0e 94 65 00 	call	0xca	; 0xca <osbme_store_context>
     504:	90 93 9c 01 	sts	0x019C, r25
     508:	80 93 9b 01 	sts	0x019B, r24
     50c:	81 e7       	ldi	r24, 0x71	; 113
     50e:	91 e0       	ldi	r25, 0x01	; 1
     510:	90 93 9a 01 	sts	0x019A, r25
     514:	80 93 99 01 	sts	0x0199, r24
     518:	80 91 9d 01 	lds	r24, 0x019D
     51c:	90 91 9e 01 	lds	r25, 0x019E
     520:	0e 94 91 00 	call	0x122	; 0x122 <osbme_load_context>
     524:	08 95       	ret

00000526 <osbme_init_stack>:
     526:	fc 01       	movw	r30, r24
     528:	60 83       	st	Z, r22
     52a:	72 93       	st	-Z, r23
     52c:	12 92       	st	-Z, r1
     52e:	12 92       	st	-Z, r1
     530:	82 e0       	ldi	r24, 0x02	; 2
     532:	82 93       	st	-Z, r24
     534:	80 e8       	ldi	r24, 0x80	; 128
     536:	82 93       	st	-Z, r24
     538:	83 e0       	ldi	r24, 0x03	; 3
     53a:	82 93       	st	-Z, r24
     53c:	84 e0       	ldi	r24, 0x04	; 4
     53e:	82 93       	st	-Z, r24
     540:	85 e0       	ldi	r24, 0x05	; 5
     542:	82 93       	st	-Z, r24
     544:	86 e0       	ldi	r24, 0x06	; 6
     546:	82 93       	st	-Z, r24
     548:	87 e0       	ldi	r24, 0x07	; 7
     54a:	82 93       	st	-Z, r24
     54c:	88 e0       	ldi	r24, 0x08	; 8
     54e:	82 93       	st	-Z, r24
     550:	89 e0       	ldi	r24, 0x09	; 9
     552:	82 93       	st	-Z, r24
     554:	80 e1       	ldi	r24, 0x10	; 16
     556:	82 93       	st	-Z, r24
     558:	81 e1       	ldi	r24, 0x11	; 17
     55a:	82 93       	st	-Z, r24
     55c:	82 e1       	ldi	r24, 0x12	; 18
     55e:	82 93       	st	-Z, r24
     560:	83 e1       	ldi	r24, 0x13	; 19
     562:	82 93       	st	-Z, r24
     564:	84 e1       	ldi	r24, 0x14	; 20
     566:	82 93       	st	-Z, r24
     568:	85 e1       	ldi	r24, 0x15	; 21
     56a:	82 93       	st	-Z, r24
     56c:	86 e1       	ldi	r24, 0x16	; 22
     56e:	82 93       	st	-Z, r24
     570:	87 e1       	ldi	r24, 0x17	; 23
     572:	82 93       	st	-Z, r24
     574:	88 e1       	ldi	r24, 0x18	; 24
     576:	82 93       	st	-Z, r24
     578:	89 e1       	ldi	r24, 0x19	; 25
     57a:	82 93       	st	-Z, r24
     57c:	80 e2       	ldi	r24, 0x20	; 32
     57e:	82 93       	st	-Z, r24
     580:	81 e2       	ldi	r24, 0x21	; 33
     582:	82 93       	st	-Z, r24
     584:	82 e2       	ldi	r24, 0x22	; 34
     586:	82 93       	st	-Z, r24
     588:	83 e2       	ldi	r24, 0x23	; 35
     58a:	82 93       	st	-Z, r24
     58c:	42 93       	st	-Z, r20
     58e:	52 93       	st	-Z, r21
     590:	86 e2       	ldi	r24, 0x26	; 38
     592:	82 93       	st	-Z, r24
     594:	87 e2       	ldi	r24, 0x27	; 39
     596:	82 93       	st	-Z, r24
     598:	88 e2       	ldi	r24, 0x28	; 40
     59a:	82 93       	st	-Z, r24
     59c:	89 e2       	ldi	r24, 0x29	; 41
     59e:	82 93       	st	-Z, r24
     5a0:	80 e3       	ldi	r24, 0x30	; 48
     5a2:	82 93       	st	-Z, r24
     5a4:	81 e3       	ldi	r24, 0x31	; 49
     5a6:	82 93       	st	-Z, r24
     5a8:	31 97       	sbiw	r30, 0x01	; 1
     5aa:	cf 01       	movw	r24, r30
     5ac:	08 95       	ret

000005ae <exit_crit_sec>:
     5ae:	80 91 c7 01 	lds	r24, 0x01C7
     5b2:	90 91 c8 01 	lds	r25, 0x01C8
     5b6:	00 97       	sbiw	r24, 0x00	; 0
     5b8:	29 f0       	breq	.+10     	; 0x5c4 <exit_crit_sec+0x16>
     5ba:	01 97       	sbiw	r24, 0x01	; 1
     5bc:	90 93 c8 01 	sts	0x01C8, r25
     5c0:	80 93 c7 01 	sts	0x01C7, r24
     5c4:	80 91 c7 01 	lds	r24, 0x01C7
     5c8:	90 91 c8 01 	lds	r25, 0x01C8
     5cc:	89 2b       	or	r24, r25
     5ce:	11 f4       	brne	.+4      	; 0x5d4 <exit_crit_sec+0x26>
     5d0:	0e 94 be 00 	call	0x17c	; 0x17c <enable_interrupts>
     5d4:	08 95       	ret

000005d6 <enter_crit_sec>:
     5d6:	0e 94 bc 00 	call	0x178	; 0x178 <disable_interrupts>
     5da:	80 91 c7 01 	lds	r24, 0x01C7
     5de:	90 91 c8 01 	lds	r25, 0x01C8
     5e2:	01 96       	adiw	r24, 0x01	; 1
     5e4:	90 93 c8 01 	sts	0x01C8, r25
     5e8:	80 93 c7 01 	sts	0x01C7, r24
     5ec:	08 95       	ret

000005ee <gitem_xlist_merge>:
     5ee:	0f 93       	push	r16
     5f0:	1f 93       	push	r17
     5f2:	cf 93       	push	r28
     5f4:	df 93       	push	r29
     5f6:	ac 01       	movw	r20, r24
     5f8:	eb 01       	movw	r28, r22
     5fa:	71 e0       	ldi	r23, 0x01	; 1
     5fc:	60 e0       	ldi	r22, 0x00	; 0
     5fe:	fa 01       	movw	r30, r20
     600:	80 89       	ldd	r24, Z+16	; 0x10
     602:	87 23       	and	r24, r23
     604:	09 f4       	brne	.+2      	; 0x608 <gitem_xlist_merge+0x1a>
     606:	44 c0       	rjmp	.+136    	; 0x690 <gitem_xlist_merge+0xa2>
     608:	28 89       	ldd	r18, Y+16	; 0x10
     60a:	87 2f       	mov	r24, r23
     60c:	82 23       	and	r24, r18
     60e:	e6 2f       	mov	r30, r22
     610:	f0 e0       	ldi	r31, 0x00	; 0
     612:	09 f1       	breq	.+66     	; 0x656 <gitem_xlist_merge+0x68>
     614:	ee 0f       	add	r30, r30
     616:	ff 1f       	adc	r31, r31
     618:	da 01       	movw	r26, r20
     61a:	ae 0f       	add	r26, r30
     61c:	bf 1f       	adc	r27, r31
     61e:	0d 90       	ld	r0, X+
     620:	bc 91       	ld	r27, X
     622:	a0 2d       	mov	r26, r0
     624:	ec 0f       	add	r30, r28
     626:	fd 1f       	adc	r31, r29
     628:	00 81       	ld	r16, Z
     62a:	11 81       	ldd	r17, Z+1	; 0x01
     62c:	12 96       	adiw	r26, 0x02	; 2
     62e:	2d 91       	ld	r18, X+
     630:	3c 91       	ld	r19, X
     632:	13 97       	sbiw	r26, 0x03	; 3
     634:	f9 01       	movw	r30, r18
     636:	11 83       	std	Z+1, r17	; 0x01
     638:	00 83       	st	Z, r16
     63a:	f8 01       	movw	r30, r16
     63c:	82 81       	ldd	r24, Z+2	; 0x02
     63e:	93 81       	ldd	r25, Z+3	; 0x03
     640:	fc 01       	movw	r30, r24
     642:	b1 83       	std	Z+1, r27	; 0x01
     644:	a0 83       	st	Z, r26
     646:	f8 01       	movw	r30, r16
     648:	33 83       	std	Z+3, r19	; 0x03
     64a:	22 83       	std	Z+2, r18	; 0x02
     64c:	13 96       	adiw	r26, 0x03	; 3
     64e:	9c 93       	st	X, r25
     650:	8e 93       	st	-X, r24
     652:	12 97       	sbiw	r26, 0x02	; 2
     654:	0d c0       	rjmp	.+26     	; 0x670 <gitem_xlist_merge+0x82>
     656:	ee 0f       	add	r30, r30
     658:	ff 1f       	adc	r31, r31
     65a:	de 01       	movw	r26, r28
     65c:	ae 0f       	add	r26, r30
     65e:	bf 1f       	adc	r27, r31
     660:	e4 0f       	add	r30, r20
     662:	f5 1f       	adc	r31, r21
     664:	80 81       	ld	r24, Z
     666:	91 81       	ldd	r25, Z+1	; 0x01
     668:	8d 93       	st	X+, r24
     66a:	9c 93       	st	X, r25
     66c:	27 2b       	or	r18, r23
     66e:	28 8b       	std	Y+16, r18	; 0x10
     670:	e6 2f       	mov	r30, r22
     672:	f0 e0       	ldi	r31, 0x00	; 0
     674:	ee 0f       	add	r30, r30
     676:	ff 1f       	adc	r31, r31
     678:	e4 0f       	add	r30, r20
     67a:	f5 1f       	adc	r31, r21
     67c:	a0 81       	ld	r26, Z
     67e:	b1 81       	ldd	r27, Z+1	; 0x01
     680:	14 96       	adiw	r26, 0x04	; 4
     682:	0d 90       	ld	r0, X+
     684:	bc 91       	ld	r27, X
     686:	a0 2d       	mov	r26, r0
     688:	cd 93       	st	X+, r28
     68a:	dc 93       	st	X, r29
     68c:	11 82       	std	Z+1, r1	; 0x01
     68e:	10 82       	st	Z, r1
     690:	77 0f       	add	r23, r23
     692:	67 30       	cpi	r22, 0x07	; 7
     694:	11 f0       	breq	.+4      	; 0x69a <gitem_xlist_merge+0xac>
     696:	6f 5f       	subi	r22, 0xFF	; 255
     698:	b2 cf       	rjmp	.-156    	; 0x5fe <gitem_xlist_merge+0x10>
     69a:	fa 01       	movw	r30, r20
     69c:	10 8a       	std	Z+16, r1	; 0x10
     69e:	df 91       	pop	r29
     6a0:	cf 91       	pop	r28
     6a2:	1f 91       	pop	r17
     6a4:	0f 91       	pop	r16
     6a6:	08 95       	ret

000006a8 <gitem_fast_cut>:
     6a8:	ff 92       	push	r15
     6aa:	0f 93       	push	r16
     6ac:	1f 93       	push	r17
     6ae:	cf 93       	push	r28
     6b0:	df 93       	push	r29
     6b2:	ec 01       	movw	r28, r24
     6b4:	ec 81       	ldd	r30, Y+4	; 0x04
     6b6:	fd 81       	ldd	r31, Y+5	; 0x05
     6b8:	f2 80       	ldd	r15, Z+2	; 0x02
     6ba:	00 81       	ld	r16, Z
     6bc:	11 81       	ldd	r17, Z+1	; 0x01
     6be:	83 81       	ldd	r24, Z+3	; 0x03
     6c0:	94 81       	ldd	r25, Z+4	; 0x04
     6c2:	82 30       	cpi	r24, 0x02	; 2
     6c4:	91 05       	cpc	r25, r1
     6c6:	48 f0       	brcs	.+18     	; 0x6da <gitem_fast_cut+0x32>
     6c8:	01 97       	sbiw	r24, 0x01	; 1
     6ca:	94 83       	std	Z+4, r25	; 0x04
     6cc:	83 83       	std	Z+3, r24	; 0x03
     6ce:	0e 94 60 04 	call	0x8c0	; 0x8c0 <group_pop>
     6d2:	fc 01       	movw	r30, r24
     6d4:	9d 83       	std	Y+5, r25	; 0x05
     6d6:	8c 83       	std	Y+4, r24	; 0x04
     6d8:	f2 82       	std	Z+2, r15	; 0x02
     6da:	88 81       	ld	r24, Y
     6dc:	99 81       	ldd	r25, Y+1	; 0x01
     6de:	af 2d       	mov	r26, r15
     6e0:	b0 e0       	ldi	r27, 0x00	; 0
     6e2:	8c 17       	cp	r24, r28
     6e4:	9d 07       	cpc	r25, r29
     6e6:	a9 f4       	brne	.+42     	; 0x712 <gitem_fast_cut+0x6a>
     6e8:	fd 01       	movw	r30, r26
     6ea:	ee 0f       	add	r30, r30
     6ec:	ff 1f       	adc	r31, r31
     6ee:	e0 0f       	add	r30, r16
     6f0:	f1 1f       	adc	r31, r17
     6f2:	11 82       	std	Z+1, r1	; 0x01
     6f4:	10 82       	st	Z, r1
     6f6:	81 e0       	ldi	r24, 0x01	; 1
     6f8:	90 e0       	ldi	r25, 0x00	; 0
     6fa:	0f 2c       	mov	r0, r15
     6fc:	02 c0       	rjmp	.+4      	; 0x702 <gitem_fast_cut+0x5a>
     6fe:	88 0f       	add	r24, r24
     700:	99 1f       	adc	r25, r25
     702:	0a 94       	dec	r0
     704:	e2 f7       	brpl	.-8      	; 0x6fe <gitem_fast_cut+0x56>
     706:	80 95       	com	r24
     708:	f8 01       	movw	r30, r16
     70a:	20 89       	ldd	r18, Z+16	; 0x10
     70c:	28 23       	and	r18, r24
     70e:	20 8b       	std	Z+16, r18	; 0x10
     710:	10 c0       	rjmp	.+32     	; 0x732 <gitem_fast_cut+0x8a>
     712:	aa 0f       	add	r26, r26
     714:	bb 1f       	adc	r27, r27
     716:	a0 0f       	add	r26, r16
     718:	b1 1f       	adc	r27, r17
     71a:	8d 91       	ld	r24, X+
     71c:	9c 91       	ld	r25, X
     71e:	8c 17       	cp	r24, r28
     720:	9d 07       	cpc	r25, r29
     722:	21 f4       	brne	.+8      	; 0x72c <gitem_fast_cut+0x84>
     724:	c8 01       	movw	r24, r16
     726:	6f 2d       	mov	r22, r15
     728:	0e 94 89 08 	call	0x1112	; 0x1112 <xlist_switch>
     72c:	ce 01       	movw	r24, r28
     72e:	0e 94 a4 04 	call	0x948	; 0x948 <item_cut>
     732:	df 91       	pop	r29
     734:	cf 91       	pop	r28
     736:	1f 91       	pop	r17
     738:	0f 91       	pop	r16
     73a:	ff 90       	pop	r15
     73c:	08 95       	ret

0000073e <gitem_cut>:
     73e:	0f 93       	push	r16
     740:	1f 93       	push	r17
     742:	8c 01       	movw	r16, r24
     744:	0e 94 54 03 	call	0x6a8	; 0x6a8 <gitem_fast_cut>
     748:	d8 01       	movw	r26, r16
     74a:	14 96       	adiw	r26, 0x04	; 4
     74c:	ed 91       	ld	r30, X+
     74e:	fc 91       	ld	r31, X
     750:	15 97       	sbiw	r26, 0x05	; 5
     752:	11 82       	std	Z+1, r1	; 0x01
     754:	10 82       	st	Z, r1
     756:	1f 91       	pop	r17
     758:	0f 91       	pop	r16
     75a:	08 95       	ret

0000075c <gitem_insert>:
     75c:	0f 93       	push	r16
     75e:	1f 93       	push	r17
     760:	cf 93       	push	r28
     762:	df 93       	push	r29
     764:	8c 01       	movw	r16, r24
     766:	eb 01       	movw	r28, r22
     768:	dc 01       	movw	r26, r24
     76a:	14 96       	adiw	r26, 0x04	; 4
     76c:	ed 91       	ld	r30, X+
     76e:	fc 91       	ld	r31, X
     770:	15 97       	sbiw	r26, 0x05	; 5
     772:	22 81       	ldd	r18, Z+2	; 0x02
     774:	81 e0       	ldi	r24, 0x01	; 1
     776:	90 e0       	ldi	r25, 0x00	; 0
     778:	02 2e       	mov	r0, r18
     77a:	02 c0       	rjmp	.+4      	; 0x780 <gitem_insert+0x24>
     77c:	88 0f       	add	r24, r24
     77e:	99 1f       	adc	r25, r25
     780:	0a 94       	dec	r0
     782:	e2 f7       	brpl	.-8      	; 0x77c <gitem_insert+0x20>
     784:	98 2f       	mov	r25, r24
     786:	e2 2f       	mov	r30, r18
     788:	f0 e0       	ldi	r31, 0x00	; 0
     78a:	28 89       	ldd	r18, Y+16	; 0x10
     78c:	82 23       	and	r24, r18
     78e:	ee 0f       	add	r30, r30
     790:	ff 1f       	adc	r31, r31
     792:	88 23       	and	r24, r24
     794:	41 f0       	breq	.+16     	; 0x7a6 <gitem_insert+0x4a>
     796:	e6 0f       	add	r30, r22
     798:	f7 1f       	adc	r31, r23
     79a:	60 81       	ld	r22, Z
     79c:	71 81       	ldd	r23, Z+1	; 0x01
     79e:	c8 01       	movw	r24, r16
     7a0:	0e 94 92 04 	call	0x924	; 0x924 <item_insert>
     7a4:	06 c0       	rjmp	.+12     	; 0x7b2 <gitem_insert+0x56>
     7a6:	e6 0f       	add	r30, r22
     7a8:	f7 1f       	adc	r31, r23
     7aa:	11 83       	std	Z+1, r17	; 0x01
     7ac:	00 83       	st	Z, r16
     7ae:	29 2b       	or	r18, r25
     7b0:	28 8b       	std	Y+16, r18	; 0x10
     7b2:	d8 01       	movw	r26, r16
     7b4:	14 96       	adiw	r26, 0x04	; 4
     7b6:	ed 91       	ld	r30, X+
     7b8:	fc 91       	ld	r31, X
     7ba:	15 97       	sbiw	r26, 0x05	; 5
     7bc:	d1 83       	std	Z+1, r29	; 0x01
     7be:	c0 83       	st	Z, r28
     7c0:	df 91       	pop	r29
     7c2:	cf 91       	pop	r28
     7c4:	1f 91       	pop	r17
     7c6:	0f 91       	pop	r16
     7c8:	08 95       	ret

000007ca <gitem_insert_group>:
     7ca:	ef 92       	push	r14
     7cc:	ff 92       	push	r15
     7ce:	0f 93       	push	r16
     7d0:	1f 93       	push	r17
     7d2:	cf 93       	push	r28
     7d4:	df 93       	push	r29
     7d6:	ec 01       	movw	r28, r24
     7d8:	db 01       	movw	r26, r22
     7da:	ec 80       	ldd	r14, Y+4	; 0x04
     7dc:	fd 80       	ldd	r15, Y+5	; 0x05
     7de:	f7 01       	movw	r30, r14
     7e0:	82 81       	ldd	r24, Z+2	; 0x02
     7e2:	21 e0       	ldi	r18, 0x01	; 1
     7e4:	30 e0       	ldi	r19, 0x00	; 0
     7e6:	08 2e       	mov	r0, r24
     7e8:	02 c0       	rjmp	.+4      	; 0x7ee <gitem_insert_group+0x24>
     7ea:	22 0f       	add	r18, r18
     7ec:	33 1f       	adc	r19, r19
     7ee:	0a 94       	dec	r0
     7f0:	e2 f7       	brpl	.-8      	; 0x7ea <gitem_insert_group+0x20>
     7f2:	e8 2f       	mov	r30, r24
     7f4:	f0 e0       	ldi	r31, 0x00	; 0
     7f6:	50 96       	adiw	r26, 0x10	; 16
     7f8:	9c 91       	ld	r25, X
     7fa:	50 97       	sbiw	r26, 0x10	; 16
     7fc:	82 2f       	mov	r24, r18
     7fe:	89 23       	and	r24, r25
     800:	ee 0f       	add	r30, r30
     802:	ff 1f       	adc	r31, r31
     804:	88 23       	and	r24, r24
     806:	d1 f0       	breq	.+52     	; 0x83c <gitem_insert_group+0x72>
     808:	8d 01       	movw	r16, r26
     80a:	0e 0f       	add	r16, r30
     80c:	1f 1f       	adc	r17, r31
     80e:	d8 01       	movw	r26, r16
     810:	6d 91       	ld	r22, X+
     812:	7c 91       	ld	r23, X
     814:	ce 01       	movw	r24, r28
     816:	0e 94 92 04 	call	0x924	; 0x924 <item_insert>
     81a:	c7 01       	movw	r24, r14
     81c:	0e 94 54 04 	call	0x8a8	; 0x8a8 <group_push>
     820:	d8 01       	movw	r26, r16
     822:	ed 91       	ld	r30, X+
     824:	fc 91       	ld	r31, X
     826:	04 80       	ldd	r0, Z+4	; 0x04
     828:	f5 81       	ldd	r31, Z+5	; 0x05
     82a:	e0 2d       	mov	r30, r0
     82c:	fd 83       	std	Y+5, r31	; 0x05
     82e:	ec 83       	std	Y+4, r30	; 0x04
     830:	83 81       	ldd	r24, Z+3	; 0x03
     832:	94 81       	ldd	r25, Z+4	; 0x04
     834:	01 96       	adiw	r24, 0x01	; 1
     836:	94 83       	std	Z+4, r25	; 0x04
     838:	83 83       	std	Z+3, r24	; 0x03
     83a:	0b c0       	rjmp	.+22     	; 0x852 <gitem_insert_group+0x88>
     83c:	ea 0f       	add	r30, r26
     83e:	fb 1f       	adc	r31, r27
     840:	d1 83       	std	Z+1, r29	; 0x01
     842:	c0 83       	st	Z, r28
     844:	92 2b       	or	r25, r18
     846:	50 96       	adiw	r26, 0x10	; 16
     848:	9c 93       	st	X, r25
     84a:	50 97       	sbiw	r26, 0x10	; 16
     84c:	f7 01       	movw	r30, r14
     84e:	b1 83       	std	Z+1, r27	; 0x01
     850:	a0 83       	st	Z, r26
     852:	df 91       	pop	r29
     854:	cf 91       	pop	r28
     856:	1f 91       	pop	r17
     858:	0f 91       	pop	r16
     85a:	ff 90       	pop	r15
     85c:	ef 90       	pop	r14
     85e:	08 95       	ret

00000860 <gitem_init>:
     860:	df 92       	push	r13
     862:	ef 92       	push	r14
     864:	ff 92       	push	r15
     866:	0f 93       	push	r16
     868:	1f 93       	push	r17
     86a:	8c 01       	movw	r16, r24
     86c:	d6 2e       	mov	r13, r22
     86e:	76 e0       	ldi	r23, 0x06	; 6
     870:	e7 2e       	mov	r14, r23
     872:	f1 2c       	mov	r15, r1
     874:	e8 0e       	add	r14, r24
     876:	f9 1e       	adc	r15, r25
     878:	0e 94 8c 04 	call	0x918	; 0x918 <item_init>
     87c:	c7 01       	movw	r24, r14
     87e:	6d 2d       	mov	r22, r13
     880:	0e 94 4b 04 	call	0x896	; 0x896 <group_init>
     884:	f8 01       	movw	r30, r16
     886:	f5 82       	std	Z+5, r15	; 0x05
     888:	e4 82       	std	Z+4, r14	; 0x04
     88a:	1f 91       	pop	r17
     88c:	0f 91       	pop	r16
     88e:	ff 90       	pop	r15
     890:	ef 90       	pop	r14
     892:	df 90       	pop	r13
     894:	08 95       	ret

00000896 <group_init>:
     896:	fc 01       	movw	r30, r24
     898:	11 82       	std	Z+1, r1	; 0x01
     89a:	10 82       	st	Z, r1
     89c:	62 83       	std	Z+2, r22	; 0x02
     89e:	81 e0       	ldi	r24, 0x01	; 1
     8a0:	90 e0       	ldi	r25, 0x00	; 0
     8a2:	94 83       	std	Z+4, r25	; 0x04
     8a4:	83 83       	std	Z+3, r24	; 0x03
     8a6:	08 95       	ret

000008a8 <group_push>:
     8a8:	fc 01       	movw	r30, r24
     8aa:	80 91 f7 01 	lds	r24, 0x01F7
     8ae:	90 91 f8 01 	lds	r25, 0x01F8
     8b2:	91 83       	std	Z+1, r25	; 0x01
     8b4:	80 83       	st	Z, r24
     8b6:	f0 93 f8 01 	sts	0x01F8, r31
     8ba:	e0 93 f7 01 	sts	0x01F7, r30
     8be:	08 95       	ret

000008c0 <group_pop>:
     8c0:	e0 91 f7 01 	lds	r30, 0x01F7
     8c4:	f0 91 f8 01 	lds	r31, 0x01F8
     8c8:	80 81       	ld	r24, Z
     8ca:	91 81       	ldd	r25, Z+1	; 0x01
     8cc:	90 93 f8 01 	sts	0x01F8, r25
     8d0:	80 93 f7 01 	sts	0x01F7, r24
     8d4:	cf 01       	movw	r24, r30
     8d6:	08 95       	ret

000008d8 <index_search>:
     8d8:	a8 2f       	mov	r26, r24
     8da:	70 e0       	ldi	r23, 0x00	; 0
     8dc:	ff ef       	ldi	r31, 0xFF	; 255
     8de:	ef ef       	ldi	r30, 0xFF	; 255
     8e0:	98 e0       	ldi	r25, 0x08	; 8
     8e2:	40 e0       	ldi	r20, 0x00	; 0
     8e4:	50 e0       	ldi	r21, 0x00	; 0
     8e6:	96 95       	lsr	r25
     8e8:	2e 2f       	mov	r18, r30
     8ea:	30 e0       	ldi	r19, 0x00	; 0
     8ec:	09 2e       	mov	r0, r25
     8ee:	02 c0       	rjmp	.+4      	; 0x8f4 <index_search+0x1c>
     8f0:	35 95       	asr	r19
     8f2:	27 95       	ror	r18
     8f4:	0a 94       	dec	r0
     8f6:	e2 f7       	brpl	.-8      	; 0x8f0 <index_search+0x18>
     8f8:	8f 2f       	mov	r24, r31
     8fa:	8a 23       	and	r24, r26
     8fc:	82 23       	and	r24, r18
     8fe:	11 f0       	breq	.+4      	; 0x904 <__stack+0x5>
     900:	e2 2f       	mov	r30, r18
     902:	03 c0       	rjmp	.+6      	; 0x90a <__stack+0xb>
     904:	f2 2f       	mov	r31, r18
     906:	f0 95       	com	r31
     908:	79 0f       	add	r23, r25
     90a:	4f 5f       	subi	r20, 0xFF	; 255
     90c:	5f 4f       	sbci	r21, 0xFF	; 255
     90e:	44 30       	cpi	r20, 0x04	; 4
     910:	51 05       	cpc	r21, r1
     912:	49 f7       	brne	.-46     	; 0x8e6 <index_search+0xe>
     914:	87 2f       	mov	r24, r23
     916:	08 95       	ret

00000918 <item_init>:
     918:	fc 01       	movw	r30, r24
     91a:	93 83       	std	Z+3, r25	; 0x03
     91c:	82 83       	std	Z+2, r24	; 0x02
     91e:	91 83       	std	Z+1, r25	; 0x01
     920:	80 83       	st	Z, r24
     922:	08 95       	ret

00000924 <item_insert>:
     924:	fc 01       	movw	r30, r24
     926:	db 01       	movw	r26, r22
     928:	12 96       	adiw	r26, 0x02	; 2
     92a:	8d 91       	ld	r24, X+
     92c:	9c 91       	ld	r25, X
     92e:	13 97       	sbiw	r26, 0x03	; 3
     930:	93 83       	std	Z+3, r25	; 0x03
     932:	82 83       	std	Z+2, r24	; 0x02
     934:	71 83       	std	Z+1, r23	; 0x01
     936:	60 83       	st	Z, r22
     938:	13 96       	adiw	r26, 0x03	; 3
     93a:	fc 93       	st	X, r31
     93c:	ee 93       	st	-X, r30
     93e:	12 97       	sbiw	r26, 0x02	; 2
     940:	dc 01       	movw	r26, r24
     942:	ed 93       	st	X+, r30
     944:	fc 93       	st	X, r31
     946:	08 95       	ret

00000948 <item_cut>:
     948:	cf 93       	push	r28
     94a:	df 93       	push	r29
     94c:	fc 01       	movw	r30, r24
     94e:	82 81       	ldd	r24, Z+2	; 0x02
     950:	93 81       	ldd	r25, Z+3	; 0x03
     952:	a0 81       	ld	r26, Z
     954:	b1 81       	ldd	r27, Z+1	; 0x01
     956:	13 96       	adiw	r26, 0x03	; 3
     958:	9c 93       	st	X, r25
     95a:	8e 93       	st	-X, r24
     95c:	12 97       	sbiw	r26, 0x02	; 2
     95e:	ec 01       	movw	r28, r24
     960:	b9 83       	std	Y+1, r27	; 0x01
     962:	a8 83       	st	Y, r26
     964:	f3 83       	std	Z+3, r31	; 0x03
     966:	e2 83       	std	Z+2, r30	; 0x02
     968:	f1 83       	std	Z+1, r31	; 0x01
     96a:	e0 83       	st	Z, r30
     96c:	df 91       	pop	r29
     96e:	cf 91       	pop	r28
     970:	08 95       	ret

00000972 <kernel_init>:
     972:	6f 92       	push	r6
     974:	7f 92       	push	r7
     976:	8f 92       	push	r8
     978:	af 92       	push	r10
     97a:	bf 92       	push	r11
     97c:	cf 92       	push	r12
     97e:	ef 92       	push	r14
     980:	ff 92       	push	r15
     982:	0f 93       	push	r16
     984:	1f 93       	push	r17
     986:	a9 ec       	ldi	r26, 0xC9	; 201
     988:	6a 2e       	mov	r6, r26
     98a:	a1 e0       	ldi	r26, 0x01	; 1
     98c:	7a 2e       	mov	r7, r26
     98e:	c3 01       	movw	r24, r6
     990:	6f e8       	ldi	r22, 0x8F	; 143
     992:	79 e0       	ldi	r23, 0x09	; 9
     994:	40 e0       	ldi	r20, 0x00	; 0
     996:	50 e0       	ldi	r21, 0x00	; 0
     998:	20 e0       	ldi	r18, 0x00	; 0
     99a:	30 e0       	ldi	r19, 0x00	; 0
     99c:	00 e0       	ldi	r16, 0x00	; 0
     99e:	10 e0       	ldi	r17, 0x00	; 0
     9a0:	ee 24       	eor	r14, r14
     9a2:	ff 24       	eor	r15, r15
     9a4:	f7 e0       	ldi	r31, 0x07	; 7
     9a6:	cf 2e       	mov	r12, r31
     9a8:	e1 e0       	ldi	r30, 0x01	; 1
     9aa:	ae 2e       	mov	r10, r30
     9ac:	b1 2c       	mov	r11, r1
     9ae:	88 24       	eor	r8, r8
     9b0:	0e 94 8f 06 	call	0xd1e	; 0xd1e <proc_init_isr>
     9b4:	c3 01       	movw	r24, r6
     9b6:	8a 97       	sbiw	r24, 0x2a	; 42
     9b8:	b3 01       	movw	r22, r6
     9ba:	0e 94 8a 07 	call	0xf14	; 0xf14 <sched_init>
     9be:	1f 91       	pop	r17
     9c0:	0f 91       	pop	r16
     9c2:	ff 90       	pop	r15
     9c4:	ef 90       	pop	r14
     9c6:	cf 90       	pop	r12
     9c8:	bf 90       	pop	r11
     9ca:	af 90       	pop	r10
     9cc:	8f 90       	pop	r8
     9ce:	7f 90       	pop	r7
     9d0:	6f 90       	pop	r6
     9d2:	08 95       	ret

000009d4 <_mutex_unlock>:
     9d4:	0f 93       	push	r16
     9d6:	1f 93       	push	r17
     9d8:	cf 93       	push	r28
     9da:	df 93       	push	r29
     9dc:	8c 01       	movw	r16, r24
     9de:	0e 94 c0 00 	call	0x180	; 0x180 <current_proc>
     9e2:	ec 01       	movw	r28, r24
     9e4:	f8 01       	movw	r30, r16
     9e6:	61 89       	ldd	r22, Z+17	; 0x11
     9e8:	0e 94 3c 06 	call	0xc78	; 0xc78 <_proc_lres_dec>
     9ec:	8b 85       	ldd	r24, Y+11	; 0x0b
     9ee:	85 ff       	sbrs	r24, 5
     9f0:	0b c0       	rjmp	.+22     	; 0xa08 <_mutex_unlock+0x34>
     9f2:	82 fd       	sbrc	r24, 2
     9f4:	09 c0       	rjmp	.+18     	; 0xa08 <_mutex_unlock+0x34>
     9f6:	ce 01       	movw	r24, r28
     9f8:	0e 94 9f 03 	call	0x73e	; 0x73e <gitem_cut>
     9fc:	ce 01       	movw	r24, r28
     9fe:	0e 94 c6 05 	call	0xb8c	; 0xb8c <_proc_prio_control_stoped>
     a02:	0e 94 c5 00 	call	0x18a	; 0x18a <resched>
     a06:	03 c0       	rjmp	.+6      	; 0xa0e <_mutex_unlock+0x3a>
     a08:	ce 01       	movw	r24, r28
     a0a:	0e 94 dc 05 	call	0xbb8	; 0xbb8 <_proc_prio_control_running>
     a0e:	f8 01       	movw	r30, r16
     a10:	80 89       	ldd	r24, Z+16	; 0x10
     a12:	88 23       	and	r24, r24
     a14:	19 f4       	brne	.+6      	; 0xa1c <_mutex_unlock+0x48>
     a16:	81 e0       	ldi	r24, 0x01	; 1
     a18:	82 8b       	std	Z+18, r24	; 0x12
     a1a:	11 c0       	rjmp	.+34     	; 0xa3e <_mutex_unlock+0x6a>
     a1c:	c8 01       	movw	r24, r16
     a1e:	0e 94 96 08 	call	0x112c	; 0x112c <xlist_head>
     a22:	8c 01       	movw	r16, r24
     a24:	fc 01       	movw	r30, r24
     a26:	83 85       	ldd	r24, Z+11	; 0x0b
     a28:	87 7f       	andi	r24, 0xF7	; 247
     a2a:	83 87       	std	Z+11, r24	; 0x0b
     a2c:	c8 01       	movw	r24, r16
     a2e:	0e 94 9f 03 	call	0x73e	; 0x73e <gitem_cut>
     a32:	c8 01       	movw	r24, r16
     a34:	0e 94 c6 05 	call	0xb8c	; 0xb8c <_proc_prio_control_stoped>
     a38:	c8 01       	movw	r24, r16
     a3a:	0e 94 23 06 	call	0xc46	; 0xc46 <_proc_run>
     a3e:	df 91       	pop	r29
     a40:	cf 91       	pop	r28
     a42:	1f 91       	pop	r17
     a44:	0f 91       	pop	r16
     a46:	08 95       	ret

00000a48 <_mutex_try_lock>:
     a48:	ff 92       	push	r15
     a4a:	0f 93       	push	r16
     a4c:	1f 93       	push	r17
     a4e:	cf 93       	push	r28
     a50:	df 93       	push	r29
     a52:	ec 01       	movw	r28, r24
     a54:	fa 88       	ldd	r15, Y+18	; 0x12
     a56:	0e 94 c0 00 	call	0x180	; 0x180 <current_proc>
     a5a:	8c 01       	movw	r16, r24
     a5c:	ff 20       	and	r15, r15
     a5e:	39 f0       	breq	.+14     	; 0xa6e <_mutex_try_lock+0x26>
     a60:	1a 8a       	std	Y+18, r1	; 0x12
     a62:	69 89       	ldd	r22, Y+17	; 0x11
     a64:	0e 94 4b 06 	call	0xc96	; 0xc96 <_proc_lres_inc>
     a68:	c8 01       	movw	r24, r16
     a6a:	0e 94 dc 05 	call	0xbb8	; 0xbb8 <_proc_prio_control_running>
     a6e:	8f 2d       	mov	r24, r15
     a70:	df 91       	pop	r29
     a72:	cf 91       	pop	r28
     a74:	1f 91       	pop	r17
     a76:	0f 91       	pop	r16
     a78:	ff 90       	pop	r15
     a7a:	08 95       	ret

00000a7c <_mutex_lock>:
     a7c:	ff 92       	push	r15
     a7e:	0f 93       	push	r16
     a80:	1f 93       	push	r17
     a82:	cf 93       	push	r28
     a84:	df 93       	push	r29
     a86:	8c 01       	movw	r16, r24
     a88:	fc 01       	movw	r30, r24
     a8a:	f2 88       	ldd	r15, Z+18	; 0x12
     a8c:	0e 94 c0 00 	call	0x180	; 0x180 <current_proc>
     a90:	ec 01       	movw	r28, r24
     a92:	f8 01       	movw	r30, r16
     a94:	61 89       	ldd	r22, Z+17	; 0x11
     a96:	0e 94 4b 06 	call	0xc96	; 0xc96 <_proc_lres_inc>
     a9a:	ff 20       	and	r15, r15
     a9c:	31 f0       	breq	.+12     	; 0xaaa <_mutex_lock+0x2e>
     a9e:	f8 01       	movw	r30, r16
     aa0:	12 8a       	std	Z+18, r1	; 0x12
     aa2:	ce 01       	movw	r24, r28
     aa4:	0e 94 dc 05 	call	0xbb8	; 0xbb8 <_proc_prio_control_running>
     aa8:	0d c0       	rjmp	.+26     	; 0xac4 <_mutex_lock+0x48>
     aaa:	8b 85       	ldd	r24, Y+11	; 0x0b
     aac:	88 60       	ori	r24, 0x08	; 8
     aae:	8d 7f       	andi	r24, 0xFD	; 253
     ab0:	8b 87       	std	Y+11, r24	; 0x0b
     ab2:	ce 01       	movw	r24, r28
     ab4:	0e 94 9f 03 	call	0x73e	; 0x73e <gitem_cut>
     ab8:	ce 01       	movw	r24, r28
     aba:	b8 01       	movw	r22, r16
     abc:	0e 94 ae 03 	call	0x75c	; 0x75c <gitem_insert>
     ac0:	0e 94 c5 00 	call	0x18a	; 0x18a <resched>
     ac4:	8f 2d       	mov	r24, r15
     ac6:	df 91       	pop	r29
     ac8:	cf 91       	pop	r28
     aca:	1f 91       	pop	r17
     acc:	0f 91       	pop	r16
     ace:	ff 90       	pop	r15
     ad0:	08 95       	ret

00000ad2 <mutex_init_isr>:
     ad2:	ff 92       	push	r15
     ad4:	0f 93       	push	r16
     ad6:	1f 93       	push	r17
     ad8:	8c 01       	movw	r16, r24
     ada:	f6 2e       	mov	r15, r22
     adc:	0e 94 79 08 	call	0x10f2	; 0x10f2 <xlist_init>
     ae0:	81 e0       	ldi	r24, 0x01	; 1
     ae2:	f8 01       	movw	r30, r16
     ae4:	82 8b       	std	Z+18, r24	; 0x12
     ae6:	f1 8a       	std	Z+17, r15	; 0x11
     ae8:	1f 91       	pop	r17
     aea:	0f 91       	pop	r16
     aec:	ff 90       	pop	r15
     aee:	08 95       	ret

00000af0 <pcounter_init>:
     af0:	dc 01       	movw	r26, r24
     af2:	50 96       	adiw	r26, 0x10	; 16
     af4:	1c 92       	st	X, r1
     af6:	50 97       	sbiw	r26, 0x10	; 16
     af8:	80 e0       	ldi	r24, 0x00	; 0
     afa:	90 e0       	ldi	r25, 0x00	; 0
     afc:	fd 01       	movw	r30, r26
     afe:	e8 0f       	add	r30, r24
     b00:	f9 1f       	adc	r31, r25
     b02:	11 82       	std	Z+1, r1	; 0x01
     b04:	10 82       	st	Z, r1
     b06:	02 96       	adiw	r24, 0x02	; 2
     b08:	80 31       	cpi	r24, 0x10	; 16
     b0a:	91 05       	cpc	r25, r1
     b0c:	b9 f7       	brne	.-18     	; 0xafc <pcounter_init+0xc>
     b0e:	08 95       	ret

00000b10 <pcounter_inc>:
     b10:	dc 01       	movw	r26, r24
     b12:	70 e0       	ldi	r23, 0x00	; 0
     b14:	fb 01       	movw	r30, r22
     b16:	ee 0f       	add	r30, r30
     b18:	ff 1f       	adc	r31, r31
     b1a:	ea 0f       	add	r30, r26
     b1c:	fb 1f       	adc	r31, r27
     b1e:	80 81       	ld	r24, Z
     b20:	91 81       	ldd	r25, Z+1	; 0x01
     b22:	01 96       	adiw	r24, 0x01	; 1
     b24:	91 83       	std	Z+1, r25	; 0x01
     b26:	80 83       	st	Z, r24
     b28:	81 e0       	ldi	r24, 0x01	; 1
     b2a:	90 e0       	ldi	r25, 0x00	; 0
     b2c:	02 c0       	rjmp	.+4      	; 0xb32 <pcounter_inc+0x22>
     b2e:	88 0f       	add	r24, r24
     b30:	99 1f       	adc	r25, r25
     b32:	6a 95       	dec	r22
     b34:	e2 f7       	brpl	.-8      	; 0xb2e <pcounter_inc+0x1e>
     b36:	50 96       	adiw	r26, 0x10	; 16
     b38:	2c 91       	ld	r18, X
     b3a:	50 97       	sbiw	r26, 0x10	; 16
     b3c:	28 2b       	or	r18, r24
     b3e:	50 96       	adiw	r26, 0x10	; 16
     b40:	2c 93       	st	X, r18
     b42:	08 95       	ret

00000b44 <pcounter_dec>:
     b44:	dc 01       	movw	r26, r24
     b46:	e6 2f       	mov	r30, r22
     b48:	f0 e0       	ldi	r31, 0x00	; 0
     b4a:	81 e0       	ldi	r24, 0x01	; 1
     b4c:	90 e0       	ldi	r25, 0x00	; 0
     b4e:	06 2e       	mov	r0, r22
     b50:	02 c0       	rjmp	.+4      	; 0xb56 <pcounter_dec+0x12>
     b52:	88 0f       	add	r24, r24
     b54:	99 1f       	adc	r25, r25
     b56:	0a 94       	dec	r0
     b58:	e2 f7       	brpl	.-8      	; 0xb52 <pcounter_dec+0xe>
     b5a:	28 2f       	mov	r18, r24
     b5c:	ee 0f       	add	r30, r30
     b5e:	ff 1f       	adc	r31, r31
     b60:	ea 0f       	add	r30, r26
     b62:	fb 1f       	adc	r31, r27
     b64:	80 81       	ld	r24, Z
     b66:	91 81       	ldd	r25, Z+1	; 0x01
     b68:	01 97       	sbiw	r24, 0x01	; 1
     b6a:	91 83       	std	Z+1, r25	; 0x01
     b6c:	80 83       	st	Z, r24
     b6e:	89 2b       	or	r24, r25
     b70:	49 f4       	brne	.+18     	; 0xb84 <pcounter_dec+0x40>
     b72:	92 2f       	mov	r25, r18
     b74:	90 95       	com	r25
     b76:	50 96       	adiw	r26, 0x10	; 16
     b78:	8c 91       	ld	r24, X
     b7a:	50 97       	sbiw	r26, 0x10	; 16
     b7c:	89 23       	and	r24, r25
     b7e:	50 96       	adiw	r26, 0x10	; 16
     b80:	8c 93       	st	X, r24
     b82:	50 97       	sbiw	r26, 0x10	; 16
     b84:	50 96       	adiw	r26, 0x10	; 16
     b86:	8c 91       	ld	r24, X
     b88:	82 23       	and	r24, r18
     b8a:	08 95       	ret

00000b8c <_proc_prio_control_stoped>:
     b8c:	cf 93       	push	r28
     b8e:	df 93       	push	r29
     b90:	ec 01       	movw	r28, r24
     b92:	8d 8d       	ldd	r24, Y+29	; 0x1d
     b94:	88 23       	and	r24, r24
     b96:	49 f0       	breq	.+18     	; 0xbaa <_proc_prio_control_stoped+0x1e>
     b98:	0e 94 6c 04 	call	0x8d8	; 0x8d8 <index_search>
     b9c:	ec 81       	ldd	r30, Y+4	; 0x04
     b9e:	fd 81       	ldd	r31, Y+5	; 0x05
     ba0:	9c 85       	ldd	r25, Y+12	; 0x0c
     ba2:	98 17       	cp	r25, r24
     ba4:	28 f4       	brcc	.+10     	; 0xbb0 <_proc_prio_control_stoped+0x24>
     ba6:	89 2f       	mov	r24, r25
     ba8:	03 c0       	rjmp	.+6      	; 0xbb0 <_proc_prio_control_stoped+0x24>
     baa:	ec 81       	ldd	r30, Y+4	; 0x04
     bac:	fd 81       	ldd	r31, Y+5	; 0x05
     bae:	8c 85       	ldd	r24, Y+12	; 0x0c
     bb0:	82 83       	std	Z+2, r24	; 0x02
     bb2:	df 91       	pop	r29
     bb4:	cf 91       	pop	r28
     bb6:	08 95       	ret

00000bb8 <_proc_prio_control_running>:
     bb8:	1f 93       	push	r17
     bba:	cf 93       	push	r28
     bbc:	df 93       	push	r29
     bbe:	ec 01       	movw	r28, r24
     bc0:	8d 8d       	ldd	r24, Y+29	; 0x1d
     bc2:	88 23       	and	r24, r24
     bc4:	41 f0       	breq	.+16     	; 0xbd6 <_proc_prio_control_running+0x1e>
     bc6:	0e 94 6c 04 	call	0x8d8	; 0x8d8 <index_search>
     bca:	9c 85       	ldd	r25, Y+12	; 0x0c
     bcc:	18 2f       	mov	r17, r24
     bce:	98 17       	cp	r25, r24
     bd0:	18 f4       	brcc	.+6      	; 0xbd8 <_proc_prio_control_running+0x20>
     bd2:	19 2f       	mov	r17, r25
     bd4:	01 c0       	rjmp	.+2      	; 0xbd8 <_proc_prio_control_running+0x20>
     bd6:	1c 85       	ldd	r17, Y+12	; 0x0c
     bd8:	ec 81       	ldd	r30, Y+4	; 0x04
     bda:	fd 81       	ldd	r31, Y+5	; 0x05
     bdc:	82 81       	ldd	r24, Z+2	; 0x02
     bde:	81 17       	cp	r24, r17
     be0:	79 f0       	breq	.+30     	; 0xc00 <_proc_prio_control_running+0x48>
     be2:	ce 01       	movw	r24, r28
     be4:	0e 94 9f 03 	call	0x73e	; 0x73e <gitem_cut>
     be8:	ec 81       	ldd	r30, Y+4	; 0x04
     bea:	fd 81       	ldd	r31, Y+5	; 0x05
     bec:	12 83       	std	Z+2, r17	; 0x02
     bee:	60 91 a1 01 	lds	r22, 0x01A1
     bf2:	70 91 a2 01 	lds	r23, 0x01A2
     bf6:	ce 01       	movw	r24, r28
     bf8:	0e 94 ae 03 	call	0x75c	; 0x75c <gitem_insert>
     bfc:	0e 94 c5 00 	call	0x18a	; 0x18a <resched>
     c00:	df 91       	pop	r29
     c02:	cf 91       	pop	r28
     c04:	1f 91       	pop	r17
     c06:	08 95       	ret

00000c08 <_proc_stop>:
     c08:	fc 01       	movw	r30, r24
     c0a:	83 85       	ldd	r24, Z+11	; 0x0b
     c0c:	8d 7f       	andi	r24, 0xFD	; 253
     c0e:	83 87       	std	Z+11, r24	; 0x0b
     c10:	cf 01       	movw	r24, r30
     c12:	0e 94 9f 03 	call	0x73e	; 0x73e <gitem_cut>
     c16:	0e 94 c5 00 	call	0x18a	; 0x18a <resched>
     c1a:	08 95       	ret

00000c1c <proc_stop_isr>:
     c1c:	fc 01       	movw	r30, r24
     c1e:	23 85       	ldd	r18, Z+11	; 0x0b
     c20:	42 2f       	mov	r20, r18
     c22:	50 e0       	ldi	r21, 0x00	; 0
     c24:	ca 01       	movw	r24, r20
     c26:	8c 71       	andi	r24, 0x1C	; 28
     c28:	90 70       	andi	r25, 0x00	; 0
     c2a:	89 2b       	or	r24, r25
     c2c:	19 f0       	breq	.+6      	; 0xc34 <proc_stop_isr+0x18>
     c2e:	20 62       	ori	r18, 0x20	; 32
     c30:	23 87       	std	Z+11, r18	; 0x0b
     c32:	02 c0       	rjmp	.+4      	; 0xc38 <proc_stop_isr+0x1c>
     c34:	21 fd       	sbrc	r18, 1
     c36:	02 c0       	rjmp	.+4      	; 0xc3c <proc_stop_isr+0x20>
     c38:	80 e0       	ldi	r24, 0x00	; 0
     c3a:	08 95       	ret
     c3c:	cf 01       	movw	r24, r30
     c3e:	0e 94 04 06 	call	0xc08	; 0xc08 <_proc_stop>
     c42:	81 e0       	ldi	r24, 0x01	; 1
     c44:	08 95       	ret

00000c46 <_proc_run>:
     c46:	fc 01       	movw	r30, r24
     c48:	83 85       	ldd	r24, Z+11	; 0x0b
     c4a:	82 60       	ori	r24, 0x02	; 2
     c4c:	83 87       	std	Z+11, r24	; 0x0b
     c4e:	60 91 a1 01 	lds	r22, 0x01A1
     c52:	70 91 a2 01 	lds	r23, 0x01A2
     c56:	cf 01       	movw	r24, r30
     c58:	0e 94 ae 03 	call	0x75c	; 0x75c <gitem_insert>
     c5c:	0e 94 c5 00 	call	0x18a	; 0x18a <resched>
     c60:	08 95       	ret

00000c62 <proc_run_isr>:
     c62:	fc 01       	movw	r30, r24
     c64:	83 85       	ldd	r24, Z+11	; 0x0b
     c66:	8a 7d       	andi	r24, 0xDA	; 218
     c68:	11 f0       	breq	.+4      	; 0xc6e <proc_run_isr+0xc>
     c6a:	80 e0       	ldi	r24, 0x00	; 0
     c6c:	08 95       	ret
     c6e:	cf 01       	movw	r24, r30
     c70:	0e 94 23 06 	call	0xc46	; 0xc46 <_proc_run>
     c74:	81 e0       	ldi	r24, 0x01	; 1
     c76:	08 95       	ret

00000c78 <_proc_lres_dec>:
     c78:	cf 93       	push	r28
     c7a:	df 93       	push	r29
     c7c:	ec 01       	movw	r28, r24
     c7e:	0d 96       	adiw	r24, 0x0d	; 13
     c80:	0e 94 a2 05 	call	0xb44	; 0xb44 <pcounter_dec>
     c84:	8d 8d       	ldd	r24, Y+29	; 0x1d
     c86:	88 23       	and	r24, r24
     c88:	19 f4       	brne	.+6      	; 0xc90 <_proc_lres_dec+0x18>
     c8a:	8b 85       	ldd	r24, Y+11	; 0x0b
     c8c:	8b 7f       	andi	r24, 0xFB	; 251
     c8e:	8b 87       	std	Y+11, r24	; 0x0b
     c90:	df 91       	pop	r29
     c92:	cf 91       	pop	r28
     c94:	08 95       	ret

00000c96 <_proc_lres_inc>:
     c96:	fc 01       	movw	r30, r24
     c98:	85 8d       	ldd	r24, Z+29	; 0x1d
     c9a:	88 23       	and	r24, r24
     c9c:	19 f4       	brne	.+6      	; 0xca4 <_proc_lres_inc+0xe>
     c9e:	83 85       	ldd	r24, Z+11	; 0x0b
     ca0:	84 60       	ori	r24, 0x04	; 4
     ca2:	83 87       	std	Z+11, r24	; 0x0b
     ca4:	cf 01       	movw	r24, r30
     ca6:	0d 96       	adiw	r24, 0x0d	; 13
     ca8:	0e 94 88 05 	call	0xb10	; 0xb10 <pcounter_inc>
     cac:	08 95       	ret

00000cae <_proc_flag_stop_isr>:
     cae:	1f 93       	push	r17
     cb0:	18 2f       	mov	r17, r24
     cb2:	0e 94 c0 00 	call	0x180	; 0x180 <current_proc>
     cb6:	fc 01       	movw	r30, r24
     cb8:	83 85       	ldd	r24, Z+11	; 0x0b
     cba:	81 23       	and	r24, r17
     cbc:	83 87       	std	Z+11, r24	; 0x0b
     cbe:	85 ff       	sbrs	r24, 5
     cc0:	07 c0       	rjmp	.+14     	; 0xcd0 <_proc_flag_stop_isr+0x22>
     cc2:	82 fd       	sbrc	r24, 2
     cc4:	05 c0       	rjmp	.+10     	; 0xcd0 <_proc_flag_stop_isr+0x22>
     cc6:	8f 7d       	andi	r24, 0xDF	; 223
     cc8:	83 87       	std	Z+11, r24	; 0x0b
     cca:	cf 01       	movw	r24, r30
     ccc:	0e 94 04 06 	call	0xc08	; 0xc08 <_proc_stop>
     cd0:	1f 91       	pop	r17
     cd2:	08 95       	ret

00000cd4 <proc_restart_isr>:
     cd4:	cf 93       	push	r28
     cd6:	df 93       	push	r29
     cd8:	ec 01       	movw	r28, r24
     cda:	9b 85       	ldd	r25, Y+11	; 0x0b
     cdc:	89 2f       	mov	r24, r25
     cde:	8e 7b       	andi	r24, 0xBE	; 190
     ce0:	11 f0       	breq	.+4      	; 0xce6 <proc_restart_isr+0x12>
     ce2:	80 e0       	ldi	r24, 0x00	; 0
     ce4:	19 c0       	rjmp	.+50     	; 0xd18 <proc_restart_isr+0x44>
     ce6:	91 70       	andi	r25, 0x01	; 1
     ce8:	9b 87       	std	Y+11, r25	; 0x0b
     cea:	ce 01       	movw	r24, r28
     cec:	0d 96       	adiw	r24, 0x0d	; 13
     cee:	0e 94 78 05 	call	0xaf0	; 0xaf0 <pcounter_init>
     cf2:	8e 8d       	ldd	r24, Y+30	; 0x1e
     cf4:	9f 8d       	ldd	r25, Y+31	; 0x1f
     cf6:	99 a3       	std	Y+33, r25	; 0x21
     cf8:	88 a3       	std	Y+32, r24	; 0x20
     cfa:	8a a5       	ldd	r24, Y+42	; 0x2a
     cfc:	9b a5       	ldd	r25, Y+43	; 0x2b
     cfe:	00 97       	sbiw	r24, 0x00	; 0
     d00:	39 f0       	breq	.+14     	; 0xd10 <proc_restart_isr+0x3c>
     d02:	6a e6       	ldi	r22, 0x6A	; 106
     d04:	72 e0       	ldi	r23, 0x02	; 2
     d06:	ae 01       	movw	r20, r28
     d08:	0e 94 e3 00 	call	0x1c6	; 0x1c6 <proc_stack_init>
     d0c:	9d a7       	std	Y+45, r25	; 0x2d
     d0e:	8c a7       	std	Y+44, r24	; 0x2c
     d10:	ce 01       	movw	r24, r28
     d12:	0e 94 23 06 	call	0xc46	; 0xc46 <_proc_run>
     d16:	81 e0       	ldi	r24, 0x01	; 1
     d18:	df 91       	pop	r29
     d1a:	cf 91       	pop	r28
     d1c:	08 95       	ret

00000d1e <proc_init_isr>:
     d1e:	2f 92       	push	r2
     d20:	3f 92       	push	r3
     d22:	4f 92       	push	r4
     d24:	5f 92       	push	r5
     d26:	6f 92       	push	r6
     d28:	7f 92       	push	r7
     d2a:	8f 92       	push	r8
     d2c:	af 92       	push	r10
     d2e:	bf 92       	push	r11
     d30:	cf 92       	push	r12
     d32:	ef 92       	push	r14
     d34:	ff 92       	push	r15
     d36:	0f 93       	push	r16
     d38:	1f 93       	push	r17
     d3a:	df 93       	push	r29
     d3c:	cf 93       	push	r28
     d3e:	00 d0       	rcall	.+0      	; 0xd40 <proc_init_isr+0x22>
     d40:	cd b7       	in	r28, 0x3d	; 61
     d42:	de b7       	in	r29, 0x3e	; 62
     d44:	3c 01       	movw	r6, r24
     d46:	2b 01       	movw	r4, r22
     d48:	1a 01       	movw	r2, r20
     d4a:	3a 83       	std	Y+2, r19	; 0x02
     d4c:	29 83       	std	Y+1, r18	; 0x01
     d4e:	6c 2d       	mov	r22, r12
     d50:	0e 94 30 04 	call	0x860	; 0x860 <gitem_init>
     d54:	f3 01       	movw	r30, r6
     d56:	13 86       	std	Z+11, r1	; 0x0b
     d58:	88 20       	and	r8, r8
     d5a:	11 f0       	breq	.+4      	; 0xd60 <proc_init_isr+0x42>
     d5c:	81 e0       	ldi	r24, 0x01	; 1
     d5e:	83 87       	std	Z+11, r24	; 0x0b
     d60:	c3 01       	movw	r24, r6
     d62:	0d 96       	adiw	r24, 0x0d	; 13
     d64:	0e 94 78 05 	call	0xaf0	; 0xaf0 <pcounter_init>
     d68:	f3 01       	movw	r30, r6
     d6a:	c4 86       	std	Z+12, r12	; 0x0c
     d6c:	b7 8e       	std	Z+31, r11	; 0x1f
     d6e:	a6 8e       	std	Z+30, r10	; 0x1e
     d70:	b1 a2       	std	Z+33, r11	; 0x21
     d72:	a0 a2       	std	Z+32, r10	; 0x20
     d74:	53 a2       	std	Z+35, r5	; 0x23
     d76:	42 a2       	std	Z+34, r4	; 0x22
     d78:	35 a2       	std	Z+37, r3	; 0x25
     d7a:	24 a2       	std	Z+36, r2	; 0x24
     d7c:	89 81       	ldd	r24, Y+1	; 0x01
     d7e:	9a 81       	ldd	r25, Y+2	; 0x02
     d80:	97 a3       	std	Z+39, r25	; 0x27
     d82:	86 a3       	std	Z+38, r24	; 0x26
     d84:	11 a7       	std	Z+41, r17	; 0x29
     d86:	00 a7       	std	Z+40, r16	; 0x28
     d88:	f3 a6       	std	Z+43, r15	; 0x2b
     d8a:	e2 a6       	std	Z+42, r14	; 0x2a
     d8c:	e1 14       	cp	r14, r1
     d8e:	f1 04       	cpc	r15, r1
     d90:	49 f0       	breq	.+18     	; 0xda4 <proc_init_isr+0x86>
     d92:	c7 01       	movw	r24, r14
     d94:	6a e6       	ldi	r22, 0x6A	; 106
     d96:	72 e0       	ldi	r23, 0x02	; 2
     d98:	a3 01       	movw	r20, r6
     d9a:	0e 94 e3 00 	call	0x1c6	; 0x1c6 <proc_stack_init>
     d9e:	f3 01       	movw	r30, r6
     da0:	95 a7       	std	Z+45, r25	; 0x2d
     da2:	84 a7       	std	Z+44, r24	; 0x2c
     da4:	0f 90       	pop	r0
     da6:	0f 90       	pop	r0
     da8:	cf 91       	pop	r28
     daa:	df 91       	pop	r29
     dac:	1f 91       	pop	r17
     dae:	0f 91       	pop	r16
     db0:	ff 90       	pop	r15
     db2:	ef 90       	pop	r14
     db4:	cf 90       	pop	r12
     db6:	bf 90       	pop	r11
     db8:	af 90       	pop	r10
     dba:	8f 90       	pop	r8
     dbc:	7f 90       	pop	r7
     dbe:	6f 90       	pop	r6
     dc0:	5f 90       	pop	r5
     dc2:	4f 90       	pop	r4
     dc4:	3f 90       	pop	r3
     dc6:	2f 90       	pop	r2
     dc8:	08 95       	ret

00000dca <sched_reschedule>:
     dca:	cf 93       	push	r28
     dcc:	df 93       	push	r29
     dce:	e0 91 9f 01 	lds	r30, 0x019F
     dd2:	f0 91 a0 01 	lds	r31, 0x01A0
     dd6:	95 a7       	std	Z+45, r25	; 0x2d
     dd8:	84 a7       	std	Z+44, r24	; 0x2c
     dda:	24 a1       	ldd	r18, Z+36	; 0x24
     ddc:	35 a1       	ldd	r19, Z+37	; 0x25
     dde:	21 15       	cp	r18, r1
     de0:	31 05       	cpc	r19, r1
     de2:	21 f0       	breq	.+8      	; 0xdec <sched_reschedule+0x22>
     de4:	80 a5       	ldd	r24, Z+40	; 0x28
     de6:	91 a5       	ldd	r25, Z+41	; 0x29
     de8:	f9 01       	movw	r30, r18
     dea:	09 95       	icall
     dec:	e0 91 a1 01 	lds	r30, 0x01A1
     df0:	f0 91 a2 01 	lds	r31, 0x01A2
     df4:	80 89       	ldd	r24, Z+16	; 0x10
     df6:	88 23       	and	r24, r24
     df8:	61 f4       	brne	.+24     	; 0xe12 <sched_reschedule+0x48>
     dfa:	80 91 a3 01 	lds	r24, 0x01A3
     dfe:	90 91 a4 01 	lds	r25, 0x01A4
     e02:	90 93 a2 01 	sts	0x01A2, r25
     e06:	80 93 a1 01 	sts	0x01A1, r24
     e0a:	f0 93 a4 01 	sts	0x01A4, r31
     e0e:	e0 93 a3 01 	sts	0x01A3, r30
     e12:	80 91 a1 01 	lds	r24, 0x01A1
     e16:	90 91 a2 01 	lds	r25, 0x01A2
     e1a:	0e 94 96 08 	call	0x112c	; 0x112c <xlist_head>
     e1e:	ec 01       	movw	r28, r24
     e20:	90 93 a0 01 	sts	0x01A0, r25
     e24:	80 93 9f 01 	sts	0x019F, r24
     e28:	ee a1       	ldd	r30, Y+38	; 0x26
     e2a:	ff a1       	ldd	r31, Y+39	; 0x27
     e2c:	30 97       	sbiw	r30, 0x00	; 0
     e2e:	19 f0       	breq	.+6      	; 0xe36 <sched_reschedule+0x6c>
     e30:	88 a5       	ldd	r24, Y+40	; 0x28
     e32:	99 a5       	ldd	r25, Y+41	; 0x29
     e34:	09 95       	icall
     e36:	8c a5       	ldd	r24, Y+44	; 0x2c
     e38:	9d a5       	ldd	r25, Y+45	; 0x2d
     e3a:	df 91       	pop	r29
     e3c:	cf 91       	pop	r28
     e3e:	08 95       	ret

00000e40 <sched_schedule>:
     e40:	cf 93       	push	r28
     e42:	df 93       	push	r29
     e44:	c0 91 9f 01 	lds	r28, 0x019F
     e48:	d0 91 a0 01 	lds	r29, 0x01A0
     e4c:	9d a7       	std	Y+45, r25	; 0x2d
     e4e:	8c a7       	std	Y+44, r24	; 0x2c
     e50:	ec a1       	ldd	r30, Y+36	; 0x24
     e52:	fd a1       	ldd	r31, Y+37	; 0x25
     e54:	30 97       	sbiw	r30, 0x00	; 0
     e56:	19 f0       	breq	.+6      	; 0xe5e <sched_schedule+0x1e>
     e58:	88 a5       	ldd	r24, Y+40	; 0x28
     e5a:	99 a5       	ldd	r25, Y+41	; 0x29
     e5c:	09 95       	icall
     e5e:	ec 81       	ldd	r30, Y+4	; 0x04
     e60:	fd 81       	ldd	r31, Y+5	; 0x05
     e62:	20 81       	ld	r18, Z
     e64:	31 81       	ldd	r19, Z+1	; 0x01
     e66:	80 91 a1 01 	lds	r24, 0x01A1
     e6a:	90 91 a2 01 	lds	r25, 0x01A2
     e6e:	28 17       	cp	r18, r24
     e70:	39 07       	cpc	r19, r25
     e72:	31 f5       	brne	.+76     	; 0xec0 <sched_schedule+0x80>
     e74:	c9 01       	movw	r24, r18
     e76:	62 81       	ldd	r22, Z+2	; 0x02
     e78:	0e 94 89 08 	call	0x1112	; 0x1112 <xlist_switch>
     e7c:	88 a1       	ldd	r24, Y+32	; 0x20
     e7e:	99 a1       	ldd	r25, Y+33	; 0x21
     e80:	82 30       	cpi	r24, 0x02	; 2
     e82:	91 05       	cpc	r25, r1
     e84:	20 f0       	brcs	.+8      	; 0xe8e <sched_schedule+0x4e>
     e86:	01 97       	sbiw	r24, 0x01	; 1
     e88:	99 a3       	std	Y+33, r25	; 0x21
     e8a:	88 a3       	std	Y+32, r24	; 0x20
     e8c:	19 c0       	rjmp	.+50     	; 0xec0 <sched_schedule+0x80>
     e8e:	ce 01       	movw	r24, r28
     e90:	0e 94 54 03 	call	0x6a8	; 0x6a8 <gitem_fast_cut>
     e94:	8b 85       	ldd	r24, Y+11	; 0x0b
     e96:	80 fd       	sbrc	r24, 0
     e98:	0c c0       	rjmp	.+24     	; 0xeb2 <sched_schedule+0x72>
     e9a:	8e 8d       	ldd	r24, Y+30	; 0x1e
     e9c:	9f 8d       	ldd	r25, Y+31	; 0x1f
     e9e:	99 a3       	std	Y+33, r25	; 0x21
     ea0:	88 a3       	std	Y+32, r24	; 0x20
     ea2:	60 91 a3 01 	lds	r22, 0x01A3
     ea6:	70 91 a4 01 	lds	r23, 0x01A4
     eaa:	ce 01       	movw	r24, r28
     eac:	0e 94 ae 03 	call	0x75c	; 0x75c <gitem_insert>
     eb0:	07 c0       	rjmp	.+14     	; 0xec0 <sched_schedule+0x80>
     eb2:	ec 81       	ldd	r30, Y+4	; 0x04
     eb4:	fd 81       	ldd	r31, Y+5	; 0x05
     eb6:	11 82       	std	Z+1, r1	; 0x01
     eb8:	10 82       	st	Z, r1
     eba:	8b 85       	ldd	r24, Y+11	; 0x0b
     ebc:	8d 7f       	andi	r24, 0xFD	; 253
     ebe:	8b 87       	std	Y+11, r24	; 0x0b
     ec0:	e0 91 a1 01 	lds	r30, 0x01A1
     ec4:	f0 91 a2 01 	lds	r31, 0x01A2
     ec8:	80 89       	ldd	r24, Z+16	; 0x10
     eca:	88 23       	and	r24, r24
     ecc:	61 f4       	brne	.+24     	; 0xee6 <sched_schedule+0xa6>
     ece:	80 91 a3 01 	lds	r24, 0x01A3
     ed2:	90 91 a4 01 	lds	r25, 0x01A4
     ed6:	90 93 a2 01 	sts	0x01A2, r25
     eda:	80 93 a1 01 	sts	0x01A1, r24
     ede:	f0 93 a4 01 	sts	0x01A4, r31
     ee2:	e0 93 a3 01 	sts	0x01A3, r30
     ee6:	80 91 a1 01 	lds	r24, 0x01A1
     eea:	90 91 a2 01 	lds	r25, 0x01A2
     eee:	0e 94 96 08 	call	0x112c	; 0x112c <xlist_head>
     ef2:	ec 01       	movw	r28, r24
     ef4:	90 93 a0 01 	sts	0x01A0, r25
     ef8:	80 93 9f 01 	sts	0x019F, r24
     efc:	ee a1       	ldd	r30, Y+38	; 0x26
     efe:	ff a1       	ldd	r31, Y+39	; 0x27
     f00:	30 97       	sbiw	r30, 0x00	; 0
     f02:	19 f0       	breq	.+6      	; 0xf0a <sched_schedule+0xca>
     f04:	88 a5       	ldd	r24, Y+40	; 0x28
     f06:	99 a5       	ldd	r25, Y+41	; 0x29
     f08:	09 95       	icall
     f0a:	8c a5       	ldd	r24, Y+44	; 0x2c
     f0c:	9d a5       	ldd	r25, Y+45	; 0x2d
     f0e:	df 91       	pop	r29
     f10:	cf 91       	pop	r28
     f12:	08 95       	ret

00000f14 <sched_init>:
     f14:	ef 92       	push	r14
     f16:	ff 92       	push	r15
     f18:	0f 93       	push	r16
     f1a:	1f 93       	push	r17
     f1c:	8c 01       	movw	r16, r24
     f1e:	7b 01       	movw	r14, r22
     f20:	06 96       	adiw	r24, 0x06	; 6
     f22:	f8 01       	movw	r30, r16
     f24:	93 83       	std	Z+3, r25	; 0x03
     f26:	82 83       	std	Z+2, r24	; 0x02
     f28:	0e 94 79 08 	call	0x10f2	; 0x10f2 <xlist_init>
     f2c:	c8 01       	movw	r24, r16
     f2e:	47 96       	adiw	r24, 0x17	; 23
     f30:	f8 01       	movw	r30, r16
     f32:	95 83       	std	Z+5, r25	; 0x05
     f34:	84 83       	std	Z+4, r24	; 0x04
     f36:	0e 94 79 08 	call	0x10f2	; 0x10f2 <xlist_init>
     f3a:	f8 01       	movw	r30, r16
     f3c:	62 81       	ldd	r22, Z+2	; 0x02
     f3e:	73 81       	ldd	r23, Z+3	; 0x03
     f40:	c7 01       	movw	r24, r14
     f42:	0e 94 ae 03 	call	0x75c	; 0x75c <gitem_insert>
     f46:	f8 01       	movw	r30, r16
     f48:	f1 82       	std	Z+1, r15	; 0x01
     f4a:	e0 82       	st	Z, r14
     f4c:	11 a6       	std	Z+41, r1	; 0x29
     f4e:	10 a6       	std	Z+40, r1	; 0x28
     f50:	1f 91       	pop	r17
     f52:	0f 91       	pop	r16
     f54:	ff 90       	pop	r15
     f56:	ef 90       	pop	r14
     f58:	08 95       	ret

00000f5a <_sem_unlock>:
     f5a:	0f 93       	push	r16
     f5c:	1f 93       	push	r17
     f5e:	fc 01       	movw	r30, r24
     f60:	80 89       	ldd	r24, Z+16	; 0x10
     f62:	88 23       	and	r24, r24
     f64:	31 f4       	brne	.+12     	; 0xf72 <_sem_unlock+0x18>
     f66:	81 89       	ldd	r24, Z+17	; 0x11
     f68:	92 89       	ldd	r25, Z+18	; 0x12
     f6a:	01 96       	adiw	r24, 0x01	; 1
     f6c:	92 8b       	std	Z+18, r25	; 0x12
     f6e:	81 8b       	std	Z+17, r24	; 0x11
     f70:	0e c0       	rjmp	.+28     	; 0xf8e <_sem_unlock+0x34>
     f72:	cf 01       	movw	r24, r30
     f74:	0e 94 96 08 	call	0x112c	; 0x112c <xlist_head>
     f78:	8c 01       	movw	r16, r24
     f7a:	fc 01       	movw	r30, r24
     f7c:	83 85       	ldd	r24, Z+11	; 0x0b
     f7e:	87 7f       	andi	r24, 0xF7	; 247
     f80:	83 87       	std	Z+11, r24	; 0x0b
     f82:	c8 01       	movw	r24, r16
     f84:	0e 94 9f 03 	call	0x73e	; 0x73e <gitem_cut>
     f88:	c8 01       	movw	r24, r16
     f8a:	0e 94 23 06 	call	0xc46	; 0xc46 <_proc_run>
     f8e:	1f 91       	pop	r17
     f90:	0f 91       	pop	r16
     f92:	08 95       	ret

00000f94 <_sem_lock>:
     f94:	0f 93       	push	r16
     f96:	1f 93       	push	r17
     f98:	cf 93       	push	r28
     f9a:	df 93       	push	r29
     f9c:	ec 01       	movw	r28, r24
     f9e:	89 89       	ldd	r24, Y+17	; 0x11
     fa0:	9a 89       	ldd	r25, Y+18	; 0x12
     fa2:	00 97       	sbiw	r24, 0x00	; 0
     fa4:	29 f0       	breq	.+10     	; 0xfb0 <_sem_lock+0x1c>
     fa6:	01 97       	sbiw	r24, 0x01	; 1
     fa8:	9a 8b       	std	Y+18, r25	; 0x12
     faa:	89 8b       	std	Y+17, r24	; 0x11
     fac:	81 e0       	ldi	r24, 0x01	; 1
     fae:	0f c0       	rjmp	.+30     	; 0xfce <_sem_lock+0x3a>
     fb0:	0e 94 c0 00 	call	0x180	; 0x180 <current_proc>
     fb4:	8c 01       	movw	r16, r24
     fb6:	fc 01       	movw	r30, r24
     fb8:	83 85       	ldd	r24, Z+11	; 0x0b
     fba:	88 60       	ori	r24, 0x08	; 8
     fbc:	83 87       	std	Z+11, r24	; 0x0b
     fbe:	c8 01       	movw	r24, r16
     fc0:	0e 94 04 06 	call	0xc08	; 0xc08 <_proc_stop>
     fc4:	c8 01       	movw	r24, r16
     fc6:	be 01       	movw	r22, r28
     fc8:	0e 94 ae 03 	call	0x75c	; 0x75c <gitem_insert>
     fcc:	80 e0       	ldi	r24, 0x00	; 0
     fce:	df 91       	pop	r29
     fd0:	cf 91       	pop	r28
     fd2:	1f 91       	pop	r17
     fd4:	0f 91       	pop	r16
     fd6:	08 95       	ret

00000fd8 <sem_init_isr>:
     fd8:	ef 92       	push	r14
     fda:	ff 92       	push	r15
     fdc:	0f 93       	push	r16
     fde:	1f 93       	push	r17
     fe0:	8c 01       	movw	r16, r24
     fe2:	7b 01       	movw	r14, r22
     fe4:	0e 94 79 08 	call	0x10f2	; 0x10f2 <xlist_init>
     fe8:	f8 01       	movw	r30, r16
     fea:	f2 8a       	std	Z+18, r15	; 0x12
     fec:	e1 8a       	std	Z+17, r14	; 0x11
     fee:	1f 91       	pop	r17
     ff0:	0f 91       	pop	r16
     ff2:	ff 90       	pop	r15
     ff4:	ef 90       	pop	r14
     ff6:	08 95       	ret

00000ff8 <sig_broadcast_isr>:
     ff8:	60 91 a1 01 	lds	r22, 0x01A1
     ffc:	70 91 a2 01 	lds	r23, 0x01A2
    1000:	0e 94 f7 02 	call	0x5ee	; 0x5ee <gitem_xlist_merge>
    1004:	0e 94 c5 00 	call	0x18a	; 0x18a <resched>
    1008:	08 95       	ret

0000100a <sig_signal_isr>:
    100a:	0f 93       	push	r16
    100c:	1f 93       	push	r17
    100e:	fc 01       	movw	r30, r24
    1010:	80 89       	ldd	r24, Z+16	; 0x10
    1012:	88 23       	and	r24, r24
    1014:	89 f0       	breq	.+34     	; 0x1038 <sig_signal_isr+0x2e>
    1016:	cf 01       	movw	r24, r30
    1018:	0e 94 96 08 	call	0x112c	; 0x112c <xlist_head>
    101c:	18 2f       	mov	r17, r24
    101e:	09 2f       	mov	r16, r25
    1020:	0e 94 54 03 	call	0x6a8	; 0x6a8 <gitem_fast_cut>
    1024:	60 91 a1 01 	lds	r22, 0x01A1
    1028:	70 91 a2 01 	lds	r23, 0x01A2
    102c:	81 2f       	mov	r24, r17
    102e:	90 2f       	mov	r25, r16
    1030:	0e 94 ae 03 	call	0x75c	; 0x75c <gitem_insert>
    1034:	0e 94 c5 00 	call	0x18a	; 0x18a <resched>
    1038:	1f 91       	pop	r17
    103a:	0f 91       	pop	r16
    103c:	08 95       	ret

0000103e <sig_wait_stage_1_isr>:
    103e:	ef 92       	push	r14
    1040:	ff 92       	push	r15
    1042:	0f 93       	push	r16
    1044:	1f 93       	push	r17
    1046:	7c 01       	movw	r14, r24
    1048:	0e 94 c0 00 	call	0x180	; 0x180 <current_proc>
    104c:	8c 01       	movw	r16, r24
    104e:	0e 94 04 06 	call	0xc08	; 0xc08 <_proc_stop>
    1052:	f8 01       	movw	r30, r16
    1054:	83 85       	ldd	r24, Z+11	; 0x0b
    1056:	80 61       	ori	r24, 0x10	; 16
    1058:	83 87       	std	Z+11, r24	; 0x0b
    105a:	c8 01       	movw	r24, r16
    105c:	b7 01       	movw	r22, r14
    105e:	0e 94 e5 03 	call	0x7ca	; 0x7ca <gitem_insert_group>
    1062:	1f 91       	pop	r17
    1064:	0f 91       	pop	r16
    1066:	ff 90       	pop	r15
    1068:	ef 90       	pop	r14
    106a:	08 95       	ret

0000106c <sig_init_isr>:
    106c:	0e 94 79 08 	call	0x10f2	; 0x10f2 <xlist_init>
    1070:	08 95       	ret

00001072 <_timer>:
    1072:	ef 92       	push	r14
    1074:	ff 92       	push	r15
    1076:	0f 93       	push	r16
    1078:	1f 93       	push	r17
    107a:	7c 01       	movw	r14, r24
    107c:	0e 94 eb 02 	call	0x5d6	; 0x5d6 <enter_crit_sec>
    1080:	00 91 f9 01 	lds	r16, 0x01F9
    1084:	10 91 fa 01 	lds	r17, 0x01FA
    1088:	0e 19       	sub	r16, r14
    108a:	1f 09       	sbc	r17, r15
    108c:	0e 94 d7 02 	call	0x5ae	; 0x5ae <exit_crit_sec>
    1090:	c8 01       	movw	r24, r16
    1092:	1f 91       	pop	r17
    1094:	0f 91       	pop	r16
    1096:	ff 90       	pop	r15
    1098:	ef 90       	pop	r14
    109a:	08 95       	ret

0000109c <_clear_timer>:
    109c:	0f 93       	push	r16
    109e:	1f 93       	push	r17
    10a0:	8c 01       	movw	r16, r24
    10a2:	0e 94 eb 02 	call	0x5d6	; 0x5d6 <enter_crit_sec>
    10a6:	80 91 f9 01 	lds	r24, 0x01F9
    10aa:	90 91 fa 01 	lds	r25, 0x01FA
    10ae:	f8 01       	movw	r30, r16
    10b0:	91 83       	std	Z+1, r25	; 0x01
    10b2:	80 83       	st	Z, r24
    10b4:	0e 94 d7 02 	call	0x5ae	; 0x5ae <exit_crit_sec>
    10b8:	1f 91       	pop	r17
    10ba:	0f 91       	pop	r16
    10bc:	08 95       	ret

000010be <wait_time>:
    10be:	0f 93       	push	r16
    10c0:	1f 93       	push	r17
    10c2:	df 93       	push	r29
    10c4:	cf 93       	push	r28
    10c6:	00 d0       	rcall	.+0      	; 0x10c8 <wait_time+0xa>
    10c8:	cd b7       	in	r28, 0x3d	; 61
    10ca:	de b7       	in	r29, 0x3e	; 62
    10cc:	8c 01       	movw	r16, r24
    10ce:	ce 01       	movw	r24, r28
    10d0:	01 96       	adiw	r24, 0x01	; 1
    10d2:	0e 94 4e 08 	call	0x109c	; 0x109c <_clear_timer>
    10d6:	89 81       	ldd	r24, Y+1	; 0x01
    10d8:	9a 81       	ldd	r25, Y+2	; 0x02
    10da:	0e 94 39 08 	call	0x1072	; 0x1072 <_timer>
    10de:	80 17       	cp	r24, r16
    10e0:	91 07       	cpc	r25, r17
    10e2:	c8 f3       	brcs	.-14     	; 0x10d6 <wait_time+0x18>
    10e4:	0f 90       	pop	r0
    10e6:	0f 90       	pop	r0
    10e8:	cf 91       	pop	r28
    10ea:	df 91       	pop	r29
    10ec:	1f 91       	pop	r17
    10ee:	0f 91       	pop	r16
    10f0:	08 95       	ret

000010f2 <xlist_init>:
    10f2:	dc 01       	movw	r26, r24
    10f4:	50 96       	adiw	r26, 0x10	; 16
    10f6:	1c 92       	st	X, r1
    10f8:	50 97       	sbiw	r26, 0x10	; 16
    10fa:	80 e0       	ldi	r24, 0x00	; 0
    10fc:	90 e0       	ldi	r25, 0x00	; 0
    10fe:	fd 01       	movw	r30, r26
    1100:	e8 0f       	add	r30, r24
    1102:	f9 1f       	adc	r31, r25
    1104:	11 82       	std	Z+1, r1	; 0x01
    1106:	10 82       	st	Z, r1
    1108:	02 96       	adiw	r24, 0x02	; 2
    110a:	80 31       	cpi	r24, 0x10	; 16
    110c:	91 05       	cpc	r25, r1
    110e:	b9 f7       	brne	.-18     	; 0x10fe <xlist_init+0xc>
    1110:	08 95       	ret

00001112 <xlist_switch>:
    1112:	e6 2f       	mov	r30, r22
    1114:	f0 e0       	ldi	r31, 0x00	; 0
    1116:	ee 0f       	add	r30, r30
    1118:	ff 1f       	adc	r31, r31
    111a:	e8 0f       	add	r30, r24
    111c:	f9 1f       	adc	r31, r25
    111e:	a0 81       	ld	r26, Z
    1120:	b1 81       	ldd	r27, Z+1	; 0x01
    1122:	8d 91       	ld	r24, X+
    1124:	9c 91       	ld	r25, X
    1126:	91 83       	std	Z+1, r25	; 0x01
    1128:	80 83       	st	Z, r24
    112a:	08 95       	ret

0000112c <xlist_head>:
    112c:	cf 93       	push	r28
    112e:	df 93       	push	r29
    1130:	ec 01       	movw	r28, r24
    1132:	88 89       	ldd	r24, Y+16	; 0x10
    1134:	88 23       	and	r24, r24
    1136:	19 f4       	brne	.+6      	; 0x113e <xlist_head+0x12>
    1138:	e0 e0       	ldi	r30, 0x00	; 0
    113a:	f0 e0       	ldi	r31, 0x00	; 0
    113c:	0b c0       	rjmp	.+22     	; 0x1154 <xlist_head+0x28>
    113e:	0e 94 6c 04 	call	0x8d8	; 0x8d8 <index_search>
    1142:	e8 2f       	mov	r30, r24
    1144:	f0 e0       	ldi	r31, 0x00	; 0
    1146:	ee 0f       	add	r30, r30
    1148:	ff 1f       	adc	r31, r31
    114a:	ec 0f       	add	r30, r28
    114c:	fd 1f       	adc	r31, r29
    114e:	01 90       	ld	r0, Z+
    1150:	f0 81       	ld	r31, Z
    1152:	e0 2d       	mov	r30, r0
    1154:	cf 01       	movw	r24, r30
    1156:	df 91       	pop	r29
    1158:	cf 91       	pop	r28
    115a:	08 95       	ret

0000115c <raise_syscall_interrupt>:
    115c:	5a 9a       	sbi	0x0b, 2	; 11
    115e:	5b 98       	cbi	0x0b, 3	; 11
    1160:	5a 98       	cbi	0x0b, 2	; 11
    1162:	5b 9a       	sbi	0x0b, 3	; 11
    1164:	08 95       	ret

00001166 <start_scheduler>:
    1166:	e0 e7       	ldi	r30, 0x70	; 112
    1168:	f0 e0       	ldi	r31, 0x00	; 0
    116a:	80 81       	ld	r24, Z
    116c:	82 60       	ori	r24, 0x02	; 2
    116e:	80 83       	st	Z, r24
    1170:	e9 9a       	sbi	0x1d, 1	; 29
    1172:	e1 9a       	sbi	0x1c, 1	; 28
    1174:	08 95       	ret

00001176 <blink_1>:
    1176:	85 b1       	in	r24, 0x05	; 5
    1178:	90 e1       	ldi	r25, 0x10	; 16
    117a:	89 27       	eor	r24, r25
    117c:	85 b9       	out	0x05, r24	; 5
    117e:	08 95       	ret

00001180 <blink_2>:
    1180:	85 b1       	in	r24, 0x05	; 5
    1182:	98 e0       	ldi	r25, 0x08	; 8
    1184:	89 27       	eor	r24, r25
    1186:	85 b9       	out	0x05, r24	; 5
    1188:	08 95       	ret

0000118a <blink_3>:
    118a:	85 b1       	in	r24, 0x05	; 5
    118c:	94 e0       	ldi	r25, 0x04	; 4
    118e:	89 27       	eor	r24, r25
    1190:	85 b9       	out	0x05, r24	; 5
    1192:	08 95       	ret

00001194 <blink_4>:
    1194:	85 b1       	in	r24, 0x05	; 5
    1196:	92 e0       	ldi	r25, 0x02	; 2
    1198:	89 27       	eor	r24, r25
    119a:	85 b9       	out	0x05, r24	; 5
    119c:	08 95       	ret

0000119e <blink_12>:
    119e:	85 b1       	in	r24, 0x05	; 5
    11a0:	20 e2       	ldi	r18, 0x20	; 32
    11a2:	82 27       	eor	r24, r18
    11a4:	85 b9       	out	0x05, r24	; 5
    11a6:	8b b1       	in	r24, 0x0b	; 11
    11a8:	90 e4       	ldi	r25, 0x40	; 64
    11aa:	89 27       	eor	r24, r25
    11ac:	8b b9       	out	0x0b, r24	; 11
    11ae:	8b b1       	in	r24, 0x0b	; 11
    11b0:	82 27       	eor	r24, r18
    11b2:	8b b9       	out	0x0b, r24	; 11
    11b4:	08 95       	ret

000011b6 <main>:
    11b6:	2f 92       	push	r2
    11b8:	3f 92       	push	r3
    11ba:	4f 92       	push	r4
    11bc:	5f 92       	push	r5
    11be:	6f 92       	push	r6
    11c0:	7f 92       	push	r7
    11c2:	8f 92       	push	r8
    11c4:	af 92       	push	r10
    11c6:	bf 92       	push	r11
    11c8:	cf 92       	push	r12
    11ca:	ef 92       	push	r14
    11cc:	ff 92       	push	r15
    11ce:	0f 93       	push	r16
    11d0:	1f 93       	push	r17
    11d2:	cf 93       	push	r28
    11d4:	df 93       	push	r29
    11d6:	0e 94 c9 00 	call	0x192	; 0x192 <init_bugurt>
    11da:	82 e0       	ldi	r24, 0x02	; 2
    11dc:	80 93 b0 00 	sts	0x00B0, r24
    11e0:	85 e0       	ldi	r24, 0x05	; 5
    11e2:	80 93 b1 00 	sts	0x00B1, r24
    11e6:	8c e7       	ldi	r24, 0x7C	; 124
    11e8:	80 93 b3 00 	sts	0x00B3, r24
    11ec:	10 92 b4 00 	sts	0x00B4, r1
    11f0:	10 92 70 00 	sts	0x0070, r1
    11f4:	17 ba       	out	0x17, r1	; 23
    11f6:	88 e0       	ldi	r24, 0x08	; 8
    11f8:	80 93 69 00 	sts	0x0069, r24
    11fc:	1d ba       	out	0x1d, r1	; 29
    11fe:	9f e3       	ldi	r25, 0x3F	; 63
    1200:	94 b9       	out	0x04, r25	; 4
    1202:	80 e2       	ldi	r24, 0x20	; 32
    1204:	85 b9       	out	0x05, r24	; 5
    1206:	97 b9       	out	0x07, r25	; 7
    1208:	18 b8       	out	0x08, r1	; 8
    120a:	8e ef       	ldi	r24, 0xFE	; 254
    120c:	8a b9       	out	0x0a, r24	; 10
    120e:	1b b8       	out	0x0b, r1	; 11
    1210:	5c 9a       	sbi	0x0b, 4	; 11
    1212:	5b 9a       	sbi	0x0b, 3	; 11
    1214:	5d 9a       	sbi	0x0b, 5	; 11
    1216:	bb ef       	ldi	r27, 0xFB	; 251
    1218:	6b 2e       	mov	r6, r27
    121a:	b1 e0       	ldi	r27, 0x01	; 1
    121c:	7b 2e       	mov	r7, r27
    121e:	2b eb       	ldi	r18, 0xBB	; 187
    1220:	38 e0       	ldi	r19, 0x08	; 8
    1222:	c3 01       	movw	r24, r6
    1224:	6a ea       	ldi	r22, 0xAA	; 170
    1226:	79 e0       	ldi	r23, 0x09	; 9
    1228:	a9 01       	movw	r20, r18
    122a:	00 e0       	ldi	r16, 0x00	; 0
    122c:	10 e0       	ldi	r17, 0x00	; 0
    122e:	a2 e3       	ldi	r26, 0x32	; 50
    1230:	ea 2e       	mov	r14, r26
    1232:	a3 e0       	ldi	r26, 0x03	; 3
    1234:	fa 2e       	mov	r15, r26
    1236:	cc 24       	eor	r12, r12
    1238:	c3 94       	inc	r12
    123a:	f2 e0       	ldi	r31, 0x02	; 2
    123c:	af 2e       	mov	r10, r31
    123e:	b1 2c       	mov	r11, r1
    1240:	88 24       	eor	r8, r8
    1242:	0e 94 8f 06 	call	0xd1e	; 0xd1e <proc_init_isr>
    1246:	e3 01       	movw	r28, r6
    1248:	ae 96       	adiw	r28, 0x2e	; 46
    124a:	20 ec       	ldi	r18, 0xC0	; 192
    124c:	38 e0       	ldi	r19, 0x08	; 8
    124e:	ce 01       	movw	r24, r28
    1250:	61 ea       	ldi	r22, 0xA1	; 161
    1252:	79 e0       	ldi	r23, 0x09	; 9
    1254:	a9 01       	movw	r20, r18
    1256:	e2 eb       	ldi	r30, 0xB2	; 178
    1258:	ee 2e       	mov	r14, r30
    125a:	e3 e0       	ldi	r30, 0x03	; 3
    125c:	fe 2e       	mov	r15, r30
    125e:	b2 e0       	ldi	r27, 0x02	; 2
    1260:	cb 2e       	mov	r12, r27
    1262:	a3 e0       	ldi	r26, 0x03	; 3
    1264:	aa 2e       	mov	r10, r26
    1266:	b1 2c       	mov	r11, r1
    1268:	0e 94 8f 06 	call	0xd1e	; 0xd1e <proc_init_isr>
    126c:	f7 e5       	ldi	r31, 0x57	; 87
    126e:	2f 2e       	mov	r2, r31
    1270:	f2 e0       	ldi	r31, 0x02	; 2
    1272:	3f 2e       	mov	r3, r31
    1274:	25 ec       	ldi	r18, 0xC5	; 197
    1276:	38 e0       	ldi	r19, 0x08	; 8
    1278:	c1 01       	movw	r24, r2
    127a:	63 eb       	ldi	r22, 0xB3	; 179
    127c:	79 e0       	ldi	r23, 0x09	; 9
    127e:	a9 01       	movw	r20, r18
    1280:	e2 e3       	ldi	r30, 0x32	; 50
    1282:	ee 2e       	mov	r14, r30
    1284:	e4 e0       	ldi	r30, 0x04	; 4
    1286:	fe 2e       	mov	r15, r30
    1288:	b4 e0       	ldi	r27, 0x04	; 4
    128a:	ab 2e       	mov	r10, r27
    128c:	b1 2c       	mov	r11, r1
    128e:	0e 94 8f 06 	call	0xd1e	; 0xd1e <proc_init_isr>
    1292:	a5 e8       	ldi	r26, 0x85	; 133
    1294:	4a 2e       	mov	r4, r26
    1296:	a2 e0       	ldi	r26, 0x02	; 2
    1298:	5a 2e       	mov	r5, r26
    129a:	2a ec       	ldi	r18, 0xCA	; 202
    129c:	38 e0       	ldi	r19, 0x08	; 8
    129e:	c2 01       	movw	r24, r4
    12a0:	68 e9       	ldi	r22, 0x98	; 152
    12a2:	79 e0       	ldi	r23, 0x09	; 9
    12a4:	a9 01       	movw	r20, r18
    12a6:	f2 eb       	ldi	r31, 0xB2	; 178
    12a8:	ef 2e       	mov	r14, r31
    12aa:	f4 e0       	ldi	r31, 0x04	; 4
    12ac:	ff 2e       	mov	r15, r31
    12ae:	e3 e0       	ldi	r30, 0x03	; 3
    12b0:	ce 2e       	mov	r12, r30
    12b2:	0e 94 8f 06 	call	0xd1e	; 0xd1e <proc_init_isr>
    12b6:	8f ec       	ldi	r24, 0xCF	; 207
    12b8:	98 e0       	ldi	r25, 0x08	; 8
    12ba:	90 93 f0 01 	sts	0x01F0, r25
    12be:	80 93 ef 01 	sts	0x01EF, r24
    12c2:	90 93 ee 01 	sts	0x01EE, r25
    12c6:	80 93 ed 01 	sts	0x01ED, r24
    12ca:	c3 01       	movw	r24, r6
    12cc:	0e 94 31 06 	call	0xc62	; 0xc62 <proc_run_isr>
    12d0:	ce 01       	movw	r24, r28
    12d2:	0e 94 31 06 	call	0xc62	; 0xc62 <proc_run_isr>
    12d6:	c1 01       	movw	r24, r2
    12d8:	0e 94 31 06 	call	0xc62	; 0xc62 <proc_run_isr>
    12dc:	c2 01       	movw	r24, r4
    12de:	0e 94 31 06 	call	0xc62	; 0xc62 <proc_run_isr>
    12e2:	03 eb       	ldi	r16, 0xB3	; 179
    12e4:	14 e0       	ldi	r17, 0x04	; 4
    12e6:	c8 01       	movw	r24, r16
    12e8:	0e 94 36 08 	call	0x106c	; 0x106c <sig_init_isr>
    12ec:	c8 01       	movw	r24, r16
    12ee:	41 96       	adiw	r24, 0x11	; 17
    12f0:	0e 94 36 08 	call	0x106c	; 0x106c <sig_init_isr>
    12f4:	0e 94 3f 01 	call	0x27e	; 0x27e <start_bugurt>
    12f8:	80 e0       	ldi	r24, 0x00	; 0
    12fa:	90 e0       	ldi	r25, 0x00	; 0
    12fc:	df 91       	pop	r29
    12fe:	cf 91       	pop	r28
    1300:	1f 91       	pop	r17
    1302:	0f 91       	pop	r16
    1304:	ff 90       	pop	r15
    1306:	ef 90       	pop	r14
    1308:	cf 90       	pop	r12
    130a:	bf 90       	pop	r11
    130c:	af 90       	pop	r10
    130e:	8f 90       	pop	r8
    1310:	7f 90       	pop	r7
    1312:	6f 90       	pop	r6
    1314:	5f 90       	pop	r5
    1316:	4f 90       	pop	r4
    1318:	3f 90       	pop	r3
    131a:	2f 90       	pop	r2
    131c:	08 95       	ret

0000131e <idle_main>:
    131e:	84 ef       	ldi	r24, 0xF4	; 244
    1320:	91 e0       	ldi	r25, 0x01	; 1
    1322:	0e 94 5f 08 	call	0x10be	; 0x10be <wait_time>
    1326:	84 ec       	ldi	r24, 0xC4	; 196
    1328:	94 e0       	ldi	r25, 0x04	; 4
    132a:	0e 94 50 02 	call	0x4a0	; 0x4a0 <sig_signal>
    132e:	f7 cf       	rjmp	.-18     	; 0x131e <idle_main>

00001330 <main3>:
    1330:	83 eb       	ldi	r24, 0xB3	; 179
    1332:	94 e0       	ldi	r25, 0x04	; 4
    1334:	0e 94 55 02 	call	0x4aa	; 0x4aa <sig_wait>
    1338:	82 e3       	ldi	r24, 0x32	; 50
    133a:	90 e0       	ldi	r25, 0x00	; 0
    133c:	0e 94 5f 08 	call	0x10be	; 0x10be <wait_time>
    1340:	f7 cf       	rjmp	.-18     	; 0x1330 <main3>

00001342 <main1>:
    1342:	84 ec       	ldi	r24, 0xC4	; 196
    1344:	94 e0       	ldi	r25, 0x04	; 4
    1346:	0e 94 55 02 	call	0x4aa	; 0x4aa <sig_wait>
    134a:	82 e3       	ldi	r24, 0x32	; 50
    134c:	90 e0       	ldi	r25, 0x00	; 0
    134e:	0e 94 5f 08 	call	0x10be	; 0x10be <wait_time>
    1352:	f7 cf       	rjmp	.-18     	; 0x1342 <main1>

00001354 <main0>:
    1354:	83 eb       	ldi	r24, 0xB3	; 179
    1356:	94 e0       	ldi	r25, 0x04	; 4
    1358:	0e 94 55 02 	call	0x4aa	; 0x4aa <sig_wait>
    135c:	82 e3       	ldi	r24, 0x32	; 50
    135e:	90 e0       	ldi	r25, 0x00	; 0
    1360:	0e 94 5f 08 	call	0x10be	; 0x10be <wait_time>
    1364:	f7 cf       	rjmp	.-18     	; 0x1354 <main0>

00001366 <main2>:
    1366:	84 ec       	ldi	r24, 0xC4	; 196
    1368:	94 e0       	ldi	r25, 0x04	; 4
    136a:	0e 94 55 02 	call	0x4aa	; 0x4aa <sig_wait>
    136e:	82 e3       	ldi	r24, 0x32	; 50
    1370:	90 e0       	ldi	r25, 0x00	; 0
    1372:	0e 94 5f 08 	call	0x10be	; 0x10be <wait_time>
    1376:	83 eb       	ldi	r24, 0xB3	; 179
    1378:	94 e0       	ldi	r25, 0x04	; 4
    137a:	0e 94 4b 02 	call	0x496	; 0x496 <sig_broadcast>
    137e:	f3 cf       	rjmp	.-26     	; 0x1366 <main2>

00001380 <_exit>:
    1380:	f8 94       	cli

00001382 <__stop_program>:
    1382:	ff cf       	rjmp	.-2      	; 0x1382 <__stop_program>
